ccopy_reg
_reconstructor
p1
(cpsychopy.data
ExperimentHandler
p2
c__builtin__
object
p3
NtRp4
(dp5
S'originPath'
p6
NsS'dataFileName'
p7
V/Users/egor/Dropbox/projects/supr-eff/supreff/data/supreff_3_r_01_2015_Apr_07_1611
p8
sS'runtimeInfo'
p9
NsS'name'
p10
S'supreff'
p11
sS'dataNames'
p12
(lp13
S'.response'
p14
aS'key_upDown.rt'
p15
asS'autoLog'
p16
I01
sS'extraInfo'
p17
(dp18
Vsession
p19
V01
p20
sVparticipant
p21
V3
sVdomEye
p22
Vr
sS'frameRate'
p23
cnumpy.core.multiarray
scalar
p24
(cnumpy
dtype
p25
(S'f8'
I0
I1
tRp26
(I3
S'<'
NNNI-1
I-1
I0
tbS'\x96b\xe6?K\xeaM@'
tRp27
sS'expName'
p28
g11
sS'date'
p29
V2015_Apr_07_1611
p30
ssS'loopsUnfinished'
p31
(lp32
sS'saveWideText'
p33
I01
sS'thisEntry'
p34
(dp35
sS'version'
p36
S''
sS'_paramNamesSoFar'
p37
(lp38
sS'entries'
p39
(lp40
(dp41
g28
g11
sg21
V3
sg22
Vr
sg15
F1.6971890926361084
sg23
g27
sg19
g20
sg14
I1
sg29
g30
sa(dp42
g28
g11
sg21
V3
sg22
Vr
sg15
F3.2187111377716064
sg23
g27
sg19
g20
sg14
I0
sg29
g30
sa(dp43
g28
g11
sg21
V3
sg22
Vr
sg15
F2.8851289749145508
sg23
g27
sg19
g20
sg14
I0
sg29
g30
sa(dp44
g28
g11
sg21
V3
sg22
Vr
sg15
F3.5877890586853027
sg23
g27
sg19
g20
sg14
I1
sg29
g30
sa(dp45
g28
g11
sg21
V3
sg22
Vr
sg15
F0.8961479663848877
sg23
g27
sg19
g20
sg14
I1
sg29
g30
sa(dp46
g28
g11
sg21
V3
sg22
Vr
sg15
F0.81468510627746582
sg23
g27
sg19
g20
sg14
I1
sg29
g30
sa(dp47
g28
g11
sg21
V3
sg22
Vr
sg15
F1.4665138721466064
sg23
g27
sg19
g20
sg14
I1
sg29
g30
sa(dp48
g28
g11
sg21
V3
sg22
Vr
sg15
F3.170482873916626
sg23
g27
sg19
g20
sg14
I1
sg29
g30
sa(dp49
g28
g11
sg21
V3
sg22
Vr
sg15
F4.2706730365753174
sg23
g27
sg19
g20
sg14
I0
sg29
g30
sa(dp50
g28
g11
sg21
V3
sg22
Vr
sg15
F1.1322810649871826
sg23
g27
sg19
g20
sg14
I1
sg29
g30
sa(dp51
g28
g11
sg21
V3
sg22
Vr
sg15
F1.6192009449005127
sg23
g27
sg19
g20
sg14
I1
sg29
g30
sa(dp52
g28
g11
sg21
V3
sg22
Vr
sg15
F1.4652979373931885
sg23
g27
sg19
g20
sg14
I1
sg29
g30
sa(dp53
g28
g11
sg21
V3
sg22
Vr
sg15
F2.65230393409729
sg23
g27
sg19
g20
sg14
I1
sg29
g30
sa(dp54
g28
g11
sg21
V3
sg22
Vr
sg15
F0.91338396072387695
sg23
g27
sg19
g20
sg14
I1
sg29
g30
sa(dp55
g28
g11
sg21
V3
sg22
Vr
sg15
F0.7123870849609375
sg23
g27
sg19
g20
sg14
I1
sg29
g30
sa(dp56
g28
g11
sg21
V3
sg22
Vr
sg15
F0.79031682014465332
sg23
g27
sg19
g20
sg14
I1
sg29
g30
sa(dp57
g28
g11
sg21
V3
sg22
Vr
sg15
F2.634533166885376
sg23
g27
sg19
g20
sg14
I0
sg29
g30
sa(dp58
g28
g11
sg21
V3
sg22
Vr
sg15
F2.9334330558776855
sg23
g27
sg19
g20
sg14
I1
sg29
g30
sa(dp59
g28
g11
sg21
V3
sg22
Vr
sg15
F2.7506110668182373
sg23
g27
sg19
g20
sg14
I1
sg29
g30
sa(dp60
g28
g11
sg21
V3
sg22
Vr
sg15
F3.5143380165100098
sg23
g27
sg19
g20
sg14
I1
sg29
g30
sa(dp61
g28
g11
sg21
V3
sg22
Vr
sg15
F0.92150783538818359
sg23
g27
sg19
g20
sg14
I1
sg29
g30
sa(dp62
g28
g11
sg21
V3
sg22
Vr
sg15
F2.1912870407104492
sg23
g27
sg19
g20
sg14
I1
sg29
g30
sa(dp63
g28
g11
sg21
V3
sg22
Vr
sg15
F2.1682610511779785
sg23
g27
sg19
g20
sg14
I1
sg29
g30
sa(dp64
g28
g11
sg21
V3
sg22
Vr
sg15
F0.83079195022583008
sg23
g27
sg19
g20
sg14
I1
sg29
g30
sa(dp65
g28
g11
sg21
V3
sg22
Vr
sg15
F3.3521990776062012
sg23
g27
sg19
g20
sg14
I1
sg29
g30
sa(dp66
g28
g11
sg21
V3
sg22
Vr
sg15
F1.4483919143676758
sg23
g27
sg19
g20
sg14
I1
sg29
g30
sa(dp67
g28
g11
sg21
V3
sg22
Vr
sg15
F3.8926520347595215
sg23
g27
sg19
g20
sg14
I0
sg29
g30
sa(dp68
g28
g11
sg21
V3
sg22
Vr
sg15
F0.89974403381347656
sg23
g27
sg19
g20
sg14
I1
sg29
g30
sa(dp69
g28
g11
sg21
V3
sg22
Vr
sg15
F3.1040189266204834
sg23
g27
sg19
g20
sg14
I0
sg29
g30
sa(dp70
g28
g11
sg21
V3
sg22
Vr
sg15
F3.9853658676147461
sg23
g27
sg19
g20
sg14
I1
sg29
g30
sa(dp71
g28
g11
sg21
V3
sg22
Vr
sg15
F0.71376514434814453
sg23
g27
sg19
g20
sg14
I1
sg29
g30
sa(dp72
g28
g11
sg21
V3
sg22
Vr
sg15
F1.0222680568695068
sg23
g27
sg19
g20
sg14
I1
sg29
g30
sa(dp73
g28
g11
sg21
V3
sg22
Vr
sg15
F3.4711401462554932
sg23
g27
sg19
g20
sg14
I1
sg29
g30
sa(dp74
g28
g11
sg21
V3
sg22
Vr
sg15
F0.76453995704650879
sg23
g27
sg19
g20
sg14
I1
sg29
g30
sa(dp75
g28
g11
sg21
V3
sg22
Vr
sg15
F1.4148318767547607
sg23
g27
sg19
g20
sg14
I1
sg29
g30
sa(dp76
g28
g11
sg21
V3
sg22
Vr
sg15
F1.4926490783691406
sg23
g27
sg19
g20
sg14
I1
sg29
g30
sa(dp77
g28
g11
sg21
V3
sg22
Vr
sg15
F0.85957098007202148
sg23
g27
sg19
g20
sg14
I1
sg29
g30
sa(dp78
g28
g11
sg21
V3
sg22
Vr
sg15
F2.906606912612915
sg23
g27
sg19
g20
sg14
I1
sg29
g30
sa(dp79
g28
g11
sg21
V3
sg22
Vr
sg15
F1.0198299884796143
sg23
g27
sg19
g20
sg14
I1
sg29
g30
sa(dp80
g28
g11
sg21
V3
sg22
Vr
sg15
F0.81369614601135254
sg23
g27
sg19
g20
sg14
I1
sg29
g30
sa(dp81
g28
g11
sg21
V3
sg22
Vr
sg15
F0.91636013984680176
sg23
g27
sg19
g20
sg14
I1
sg29
g30
sa(dp82
g28
g11
sg21
V3
sg22
Vr
sg15
F1.3981809616088867
sg23
g27
sg19
g20
sg14
I1
sg29
g30
sa(dp83
g28
g11
sg21
V3
sg22
Vr
sg15
F3.1191239356994629
sg23
g27
sg19
g20
sg14
I1
sg29
g30
sa(dp84
g28
g11
sg21
V3
sg22
Vr
sg15
F1.7675058841705322
sg23
g27
sg19
g20
sg14
I1
sg29
g30
sa(dp85
g28
g11
sg21
V3
sg22
Vr
sg15
F1.4691629409790039
sg23
g27
sg19
g20
sg14
I1
sg29
g30
sa(dp86
g28
g11
sg21
V3
sg22
Vr
sg15
F1.8500030040740967
sg23
g27
sg19
g20
sg14
I1
sg29
g30
sa(dp87
g28
g11
sg21
V3
sg22
Vr
sg15
F5.1207840442657471
sg23
g27
sg19
g20
sg14
I0
sg29
g30
sa(dp88
g28
g11
sg21
V3
sg22
Vr
sg15
F3.0117528438568115
sg23
g27
sg19
g20
sg14
I0
sg29
g30
sa(dp89
g28
g11
sg21
V3
sg22
Vr
sg15
F1.4628660678863525
sg23
g27
sg19
g20
sg14
I1
sg29
g30
sa(dp90
g28
g11
sg21
V3
sg22
Vr
sg15
F1.2149999141693115
sg23
g27
sg19
g20
sg14
I1
sg29
g30
sa(dp91
g28
g11
sg21
V3
sg22
Vr
sg15
F1.1660988330841064
sg23
g27
sg19
g20
sg14
I1
sg29
g30
sa(dp92
g28
g11
sg21
V3
sg22
Vr
sg15
F0.83131599426269531
sg23
g27
sg19
g20
sg14
I1
sg29
g30
sa(dp93
g28
g11
sg21
V3
sg22
Vr
sg15
F1.2982480525970459
sg23
g27
sg19
g20
sg14
I1
sg29
g30
sa(dp94
g28
g11
sg21
V3
sg22
Vr
sg15
F1.531480073928833
sg23
g27
sg19
g20
sg14
I1
sg29
g30
sa(dp95
g28
g11
sg21
V3
sg22
Vr
sg15
F1.7051711082458496
sg23
g27
sg19
g20
sg14
I1
sg29
g30
sa(dp96
g28
g11
sg21
V3
sg22
Vr
sg15
F4.4246079921722412
sg23
g27
sg19
g20
sg14
I1
sg29
g30
sa(dp97
g28
g11
sg21
V3
sg22
Vr
sg15
F4.1878170967102051
sg23
g27
sg19
g20
sg14
I0
sg29
g30
sa(dp98
g28
g11
sg21
V3
sg22
Vr
sg15
F3.3516709804534912
sg23
g27
sg19
g20
sg14
I0
sg29
g30
sa(dp99
g28
g11
sg21
V3
sg22
Vr
sg15
F3.6460261344909668
sg23
g27
sg19
g20
sg14
I0
sg29
g30
sa(dp100
g28
g11
sg21
V3
sg22
Vr
sg15
F4.570563793182373
sg23
g27
sg19
g20
sg14
I0
sg29
g30
sa(dp101
g28
g11
sg21
V3
sg22
Vr
sg15
F4.0027568340301514
sg23
g27
sg19
g20
sg14
I0
sg29
g30
sa(dp102
g28
g11
sg21
V3
sg22
Vr
sg15
F4.623711109161377
sg23
g27
sg19
g20
sg14
I1
sg29
g30
sa(dp103
g28
g11
sg21
V3
sg22
Vr
sg15
F3.3034570217132568
sg23
g27
sg19
g20
sg14
I0
sg29
g30
sa(dp104
g28
g11
sg21
V3
sg22
Vr
sg15
F2.9230248928070068
sg23
g27
sg19
g20
sg14
I1
sg29
g30
sa(dp105
g28
g11
sg21
V3
sg22
Vr
sg15
F4.9369399547576904
sg23
g27
sg19
g20
sg14
I1
sg29
g30
sa(dp106
g28
g11
sg21
V3
sg22
Vr
sg15
F3.903005838394165
sg23
g27
sg19
g20
sg14
I1
sg29
g30
sa(dp107
g28
g11
sg21
V3
sg22
Vr
sg15
F1.404339075088501
sg23
g27
sg19
g20
sg14
I1
sg29
g30
sa(dp108
g28
g11
sg21
V3
sg22
Vr
sg15
F2.7018430233001709
sg23
g27
sg19
g20
sg14
I1
sg29
g30
sa(dp109
g28
g11
sg21
V3
sg22
Vr
sg15
F3.872081995010376
sg23
g27
sg19
g20
sg14
I1
sg29
g30
sa(dp110
g28
g11
sg21
V3
sg22
Vr
sg15
F2.0476338863372803
sg23
g27
sg19
g20
sg14
I1
sg29
g30
sa(dp111
g28
g11
sg21
V3
sg22
Vr
sg15
F1.5457839965820312
sg23
g27
sg19
g20
sg14
I1
sg29
g30
sa(dp112
g28
g11
sg21
V3
sg22
Vr
sg15
F3.5879390239715576
sg23
g27
sg19
g20
sg14
I1
sg29
g30
sa(dp113
g28
g11
sg21
V3
sg22
Vr
sg15
F2.9674859046936035
sg23
g27
sg19
g20
sg14
I1
sg29
g30
sa(dp114
g28
g11
sg21
V3
sg22
Vr
sg15
F1.4299371242523193
sg23
g27
sg19
g20
sg14
I1
sg29
g30
sa(dp115
g28
g11
sg21
V3
sg22
Vr
sg15
F1.4491558074951172
sg23
g27
sg19
g20
sg14
I1
sg29
g30
sa(dp116
g28
g11
sg21
V3
sg22
Vr
sg15
F1.0149149894714355
sg23
g27
sg19
g20
sg14
I1
sg29
g30
sa(dp117
g28
g11
sg21
V3
sg22
Vr
sg15
F5.9672679901123047
sg23
g27
sg19
g20
sg14
I0
sg29
g30
sa(dp118
g28
g11
sg21
V3
sg22
Vr
sg15
F4.3749740123748779
sg23
g27
sg19
g20
sg14
I0
sg29
g30
sa(dp119
g28
g11
sg21
V3
sg22
Vr
sg15
F3.1843621730804443
sg23
g27
sg19
g20
sg14
I1
sg29
g30
sa(dp120
g28
g11
sg21
V3
sg22
Vr
sg15
F5.2048449516296387
sg23
g27
sg19
g20
sg14
I0
sg29
g30
sa(dp121
g28
g11
sg21
V3
sg22
Vr
sg15
F1.6388781070709229
sg23
g27
sg19
g20
sg14
I1
sg29
g30
sa(dp122
g28
g11
sg21
V3
sg22
Vr
sg15
F4.742344856262207
sg23
g27
sg19
g20
sg14
I0
sg29
g30
sa(dp123
g28
g11
sg21
V3
sg22
Vr
sg15
F1.6666748523712158
sg23
g27
sg19
g20
sg14
I1
sg29
g30
sa(dp124
g28
g11
sg21
V3
sg22
Vr
sg15
F1.7831969261169434
sg23
g27
sg19
g20
sg14
I1
sg29
g30
sa(dp125
g28
g11
sg21
V3
sg22
Vr
sg15
F1.3653271198272705
sg23
g27
sg19
g20
sg14
I1
sg29
g30
sa(dp126
g28
g11
sg21
V3
sg22
Vr
sg15
F3.0346999168395996
sg23
g27
sg19
g20
sg14
I1
sg29
g30
sa(dp127
g28
g11
sg21
V3
sg22
Vr
sg15
F1.7007730007171631
sg23
g27
sg19
g20
sg14
I1
sg29
g30
sa(dp128
g28
g11
sg21
V3
sg22
Vr
sg15
F1.7043230533599854
sg23
g27
sg19
g20
sg14
I1
sg29
g30
sa(dp129
g28
g11
sg21
V3
sg22
Vr
sg15
F1.1819541454315186
sg23
g27
sg19
g20
sg14
I1
sg29
g30
sa(dp130
g28
g11
sg21
V3
sg22
Vr
sg15
F1.5474908351898193
sg23
g27
sg19
g20
sg14
I1
sg29
g30
sa(dp131
g28
g11
sg21
V3
sg22
Vr
sg15
F1.5311520099639893
sg23
g27
sg19
g20
sg14
I1
sg29
g30
sa(dp132
g28
g11
sg21
V3
sg22
Vr
sg15
F2.4960408210754395
sg23
g27
sg19
g20
sg14
I1
sg29
g30
sa(dp133
g28
g11
sg21
V3
sg22
Vr
sg15
F3.4194939136505127
sg23
g27
sg19
g20
sg14
I1
sg29
g30
sa(dp134
g28
g11
sg21
V3
sg22
Vr
sg15
F1.5871732234954834
sg23
g27
sg19
g20
sg14
I1
sg29
g30
sa(dp135
g28
g11
sg21
V3
sg22
Vr
sg15
F3.3340117931365967
sg23
g27
sg19
g20
sg14
I0
sg29
g30
sa(dp136
g28
g11
sg21
V3
sg22
Vr
sg15
F3.3861579895019531
sg23
g27
sg19
g20
sg14
I1
sg29
g30
sa(dp137
g28
g11
sg21
V3
sg22
Vr
sg15
F3.3856418132781982
sg23
g27
sg19
g20
sg14
I1
sg29
g30
sa(dp138
g28
g11
sg21
V3
sg22
Vr
sg15
F1.2480599880218506
sg23
g27
sg19
g20
sg14
I1
sg29
g30
sa(dp139
g28
g11
sg21
V3
sg22
Vr
sg15
F1.4019420146942139
sg23
g27
sg19
g20
sg14
I1
sg29
g30
sa(dp140
g28
g11
sg21
V3
sg22
Vr
sg15
F2.5333590507507324
sg23
g27
sg19
g20
sg14
I0
sg29
g30
sa(dp141
g28
g11
sg21
V3
sg22
Vr
sg15
F2.734158992767334
sg23
g27
sg19
g20
sg14
I0
sg29
g30
sa(dp142
g28
g11
sg21
V3
sg22
Vr
sg15
F2.7332789897918701
sg23
g27
sg19
g20
sg14
I0
sg29
g30
sa(dp143
g28
g11
sg21
V3
sg22
Vr
sg15
F0.93096303939819336
sg23
g27
sg19
g20
sg14
I1
sg29
g30
sa(dp144
g28
g11
sg21
V3
sg22
Vr
sg15
F2.7046101093292236
sg23
g27
sg19
g20
sg14
I0
sg29
g30
sa(dp145
g28
g11
sg21
V3
sg22
Vr
sg15
F3.8706879615783691
sg23
g27
sg19
g20
sg14
I0
sg29
g30
sa(dp146
g28
g11
sg21
V3
sg22
Vr
sg15
F1.1310160160064697
sg23
g27
sg19
g20
sg14
I1
sg29
g30
sa(dp147
g28
g11
sg21
V3
sg22
Vr
sg15
F3.9419801235198975
sg23
g27
sg19
g20
sg14
I1
sg29
g30
sa(dp148
g28
g11
sg21
V3
sg22
Vr
sg15
F4.0933070182800293
sg23
g27
sg19
g20
sg14
I1
sg29
g30
sa(dp149
g28
g11
sg21
V3
sg22
Vr
sg15
F1.5708448886871338
sg23
g27
sg19
g20
sg14
I1
sg29
g30
sa(dp150
g28
g11
sg21
V3
sg22
Vr
sg15
F1.249985933303833
sg23
g27
sg19
g20
sg14
I1
sg29
g30
sa(dp151
g28
g11
sg21
V3
sg22
Vr
sg15
F1.4329509735107422
sg23
g27
sg19
g20
sg14
I1
sg29
g30
sa(dp152
g28
g11
sg21
V3
sg22
Vr
sg15
F5.5896561145782471
sg23
g27
sg19
g20
sg14
I0
sg29
g30
sa(dp153
g28
g11
sg21
V3
sg22
Vr
sg15
F0.6980280876159668
sg23
g27
sg19
g20
sg14
I1
sg29
g30
sa(dp154
g28
g11
sg21
V3
sg22
Vr
sg15
F1.3689441680908203
sg23
g27
sg19
g20
sg14
I1
sg29
g30
sa(dp155
g28
g11
sg21
V3
sg22
Vr
sg15
F3.7202420234680176
sg23
g27
sg19
g20
sg14
I1
sg29
g30
sa(dp156
g28
g11
sg21
V3
sg22
Vr
sg15
F1.4153079986572266
sg23
g27
sg19
g20
sg14
I1
sg29
g30
sa(dp157
g28
g11
sg21
V3
sg22
Vr
sg15
F6.109766960144043
sg23
g27
sg19
g20
sg14
I0
sg29
g30
sa(dp158
g28
g11
sg21
V3
sg22
Vr
sg15
F5.4244508743286133
sg23
g27
sg19
g20
sg14
I0
sg29
g30
sa(dp159
g28
g11
sg21
V3
sg22
Vr
sg15
F6.2567830085754395
sg23
g27
sg19
g20
sg14
I0
sg29
g30
sa(dp160
g28
g11
sg21
V3
sg22
Vr
sg15
F3.1792519092559814
sg23
g27
sg19
g20
sg14
I1
sg29
g30
sa(dp161
g28
g11
sg21
V3
sg22
Vr
sg15
F0.78141593933105469
sg23
g27
sg19
g20
sg14
I1
sg29
g30
sa(dp162
g28
g11
sg21
V3
sg22
Vr
sg15
F1.5707740783691406
sg23
g27
sg19
g20
sg14
I1
sg29
g30
sa(dp163
g28
g11
sg21
V3
sg22
Vr
sg15
F1.0795409679412842
sg23
g27
sg19
g20
sg14
I1
sg29
g30
sa(dp164
g28
g11
sg21
V3
sg22
Vr
sg15
F1.4645819664001465
sg23
g27
sg19
g20
sg14
I1
sg29
g30
sa(dp165
g28
g11
sg21
V3
sg22
Vr
sg15
F1.5651540756225586
sg23
g27
sg19
g20
sg14
I1
sg29
g30
sa(dp166
g28
g11
sg21
V3
sg22
Vr
sg15
F1.8157711029052734
sg23
g27
sg19
g20
sg14
I1
sg29
g30
sa(dp167
g28
g11
sg21
V3
sg22
Vr
sg15
F3.4602391719818115
sg23
g27
sg19
g20
sg14
I0
sg29
g30
sa(dp168
g28
g11
sg21
V3
sg22
Vr
sg15
F1.1716451644897461
sg23
g27
sg19
g20
sg14
I1
sg29
g30
sa(dp169
g28
g11
sg21
V3
sg22
Vr
sg15
F3.6691811084747314
sg23
g27
sg19
g20
sg14
I0
sg29
g30
sa(dp170
g28
g11
sg21
V3
sg22
Vr
sg15
F0.79959797859191895
sg23
g27
sg19
g20
sg14
I1
sg29
g30
sa(dp171
g28
g11
sg21
V3
sg22
Vr
sg15
F0.89698314666748047
sg23
g27
sg19
g20
sg14
I1
sg29
g30
sa(dp172
g28
g11
sg21
V3
sg22
Vr
sg15
F3.9635388851165771
sg23
g27
sg19
g20
sg14
I0
sg29
g30
sa(dp173
g28
g11
sg21
V3
sg22
Vr
sg15
F1.6031608581542969
sg23
g27
sg19
g20
sg14
I1
sg29
g30
sa(dp174
g28
g11
sg21
V3
sg22
Vr
sg15
F4.2410168647766113
sg23
g27
sg19
g20
sg14
I1
sg29
g30
sa(dp175
g28
g11
sg21
V3
sg22
Vr
sg15
F1.0139830112457275
sg23
g27
sg19
g20
sg14
I1
sg29
g30
sa(dp176
g28
g11
sg21
V3
sg22
Vr
sg15
F3.7643890380859375
sg23
g27
sg19
g20
sg14
I0
sg29
g30
sa(dp177
g28
g11
sg21
V3
sg22
Vr
sg15
F1.2308990955352783
sg23
g27
sg19
g20
sg14
I1
sg29
g30
sa(dp178
g28
g11
sg21
V3
sg22
Vr
sg15
F2.9184789657592773
sg23
g27
sg19
g20
sg14
I0
sg29
g30
sa(dp179
g28
g11
sg21
V3
sg22
Vr
sg15
F3.2682850360870361
sg23
g27
sg19
g20
sg14
I0
sg29
g30
sa(dp180
g28
g11
sg21
V3
sg22
Vr
sg15
F1.3475890159606934
sg23
g27
sg19
g20
sg14
I1
sg29
g30
sa(dp181
g28
g11
sg21
V3
sg22
Vr
sg15
F2.8003160953521729
sg23
g27
sg19
g20
sg14
I1
sg29
g30
sa(dp182
g28
g11
sg21
V3
sg22
Vr
sg15
F2.2213799953460693
sg23
g27
sg19
g20
sg14
I1
sg29
g30
sa(dp183
g28
g11
sg21
V3
sg22
Vr
sg15
F1.8175590038299561
sg23
g27
sg19
g20
sg14
I1
sg29
g30
sa(dp184
g28
g11
sg21
V3
sg22
Vr
sg15
F1.5191109180450439
sg23
g27
sg19
g20
sg14
I1
sg29
g30
sa(dp185
g28
g11
sg21
V3
sg22
Vr
sg15
F0.88099098205566406
sg23
g27
sg19
g20
sg14
I1
sg29
g30
sa(dp186
g28
g11
sg21
V3
sg22
Vr
sg15
F0.84942817687988281
sg23
g27
sg19
g20
sg14
I1
sg29
g30
sa(dp187
g28
g11
sg21
V3
sg22
Vr
sg15
F0.89754009246826172
sg23
g27
sg19
g20
sg14
I1
sg29
g30
sa(dp188
g28
g11
sg21
V3
sg22
Vr
sg15
F0.76401400566101074
sg23
g27
sg19
g20
sg14
I1
sg29
g30
sa(dp189
g28
g11
sg21
V3
sg22
Vr
sg15
F0.80372500419616699
sg23
g27
sg19
g20
sg14
I1
sg29
g30
sa(dp190
g28
g11
sg21
V3
sg22
Vr
sg15
F1.302962064743042
sg23
g27
sg19
g20
sg14
I1
sg29
g30
sa(dp191
g28
g11
sg21
V3
sg22
Vr
sg15
F1.2329850196838379
sg23
g27
sg19
g20
sg14
I1
sg29
g30
sa(dp192
g28
g11
sg21
V3
sg22
Vr
sg15
F2.8178319931030273
sg23
g27
sg19
g20
sg14
I0
sg29
g30
sa(dp193
g28
g11
sg21
V3
sg22
Vr
sg15
F3.5697441101074219
sg23
g27
sg19
g20
sg14
I0
sg29
g30
sa(dp194
g28
g11
sg21
V3
sg22
Vr
sg15
F1.5558910369873047
sg23
g27
sg19
g20
sg14
I1
sg29
g30
sa(dp195
g28
g11
sg21
V3
sg22
Vr
sg15
F1.3799479007720947
sg23
g27
sg19
g20
sg14
I1
sg29
g30
sa(dp196
g28
g11
sg21
V3
sg22
Vr
sg15
F1.0973069667816162
sg23
g27
sg19
g20
sg14
I1
sg29
g30
sa(dp197
g28
g11
sg21
V3
sg22
Vr
sg15
F1.7326159477233887
sg23
g27
sg19
g20
sg14
I1
sg29
g30
sa(dp198
g28
g11
sg21
V3
sg22
Vr
sg15
F1.4810471534729004
sg23
g27
sg19
g20
sg14
I1
sg29
g30
sa(dp199
g28
g11
sg21
V3
sg22
Vr
sg15
F0.78499794006347656
sg23
g27
sg19
g20
sg14
I1
sg29
g30
sa(dp200
g28
g11
sg21
V3
sg22
Vr
sg15
F3.4596610069274902
sg23
g27
sg19
g20
sg14
I0
sg29
g30
sa(dp201
g28
g11
sg21
V3
sg22
Vr
sg15
F1.1689629554748535
sg23
g27
sg19
g20
sg14
I1
sg29
g30
sa(dp202
g28
g11
sg21
V3
sg22
Vr
sg15
F1.0161080360412598
sg23
g27
sg19
g20
sg14
I1
sg29
g30
sa(dp203
g28
g11
sg21
V3
sg22
Vr
sg15
F1.6988880634307861
sg23
g27
sg19
g20
sg14
I1
sg29
g30
sa(dp204
g28
g11
sg21
V3
sg22
Vr
sg15
F1.6818599700927734
sg23
g27
sg19
g20
sg14
I0
sg29
g30
sa(dp205
g28
g11
sg21
V3
sg22
Vr
sg15
F1.3987829685211182
sg23
g27
sg19
g20
sg14
I1
sg29
g30
sa(dp206
g28
g11
sg21
V3
sg22
Vr
sg15
F1.3667230606079102
sg23
g27
sg19
g20
sg14
I1
sg29
g30
sa(dp207
g28
g11
sg21
V3
sg22
Vr
sg15
F1.3165950775146484
sg23
g27
sg19
g20
sg14
I1
sg29
g30
sa(dp208
g28
g11
sg21
V3
sg22
Vr
sg15
F1.6982760429382324
sg23
g27
sg19
g20
sg14
I1
sg29
g30
sa(dp209
g28
g11
sg21
V3
sg22
Vr
sg15
F1.3643221855163574
sg23
g27
sg19
g20
sg14
I1
sg29
g30
sa(dp210
g28
g11
sg21
V3
sg22
Vr
sg15
F1.9990179538726807
sg23
g27
sg19
g20
sg14
I1
sg29
g30
sa(dp211
g28
g11
sg21
V3
sg22
Vr
sg15
F1.5307490825653076
sg23
g27
sg19
g20
sg14
I1
sg29
g30
sa(dp212
g28
g11
sg21
V3
sg22
Vr
sg15
F3.4705579280853271
sg23
g27
sg19
g20
sg14
I1
sg29
g30
sa(dp213
g28
g11
sg21
V3
sg22
Vr
sg15
F2.0348868370056152
sg23
g27
sg19
g20
sg14
I0
sg29
g30
sa(dp214
g28
g11
sg21
V3
sg22
Vr
sg15
F1.4171581268310547
sg23
g27
sg19
g20
sg14
I1
sg29
g30
sa(dp215
g28
g11
sg21
V3
sg22
Vr
sg15
F2.5013599395751953
sg23
g27
sg19
g20
sg14
I0
sg29
g30
sa(dp216
g28
g11
sg21
V3
sg22
Vr
sg15
F0.91352605819702148
sg23
g27
sg19
g20
sg14
I1
sg29
g30
sa(dp217
g28
g11
sg21
V3
sg22
Vr
sg15
F1.7338211536407471
sg23
g27
sg19
g20
sg14
I1
sg29
g30
sa(dp218
g28
g11
sg21
V3
sg22
Vr
sg15
F1.4378979206085205
sg23
g27
sg19
g20
sg14
I1
sg29
g30
sa(dp219
g28
g11
sg21
V3
sg22
Vr
sg15
F1.597559928894043
sg23
g27
sg19
g20
sg14
I1
sg29
g30
sa(dp220
g28
g11
sg21
V3
sg22
Vr
sg15
F4.1500799655914307
sg23
g27
sg19
g20
sg14
I1
sg29
g30
sa(dp221
g28
g11
sg21
V3
sg22
Vr
sg15
F0.93050789833068848
sg23
g27
sg19
g20
sg14
I1
sg29
g30
sa(dp222
g28
g11
sg21
V3
sg22
Vr
sg15
F2.0684778690338135
sg23
g27
sg19
g20
sg14
I1
sg29
g30
sa(dp223
g28
g11
sg21
V3
sg22
Vr
sg15
F0.81569504737854004
sg23
g27
sg19
g20
sg14
I1
sg29
g30
sa(dp224
g28
g11
sg21
V3
sg22
Vr
sg15
F2.434438943862915
sg23
g27
sg19
g20
sg14
I0
sg29
g30
sa(dp225
g28
g11
sg21
V3
sg22
Vr
sg15
F1.53096604347229
sg23
g27
sg19
g20
sg14
I1
sg29
g30
sa(dp226
g28
g11
sg21
V3
sg22
Vr
sg15
F2.0328590869903564
sg23
g27
sg19
g20
sg14
I1
sg29
g30
sa(dp227
g28
g11
sg21
V3
sg22
Vr
sg15
F1.383915901184082
sg23
g27
sg19
g20
sg14
I1
sg29
g30
sa(dp228
g28
g11
sg21
V3
sg22
Vr
sg15
F3.3347210884094238
sg23
g27
sg19
g20
sg14
I1
sg29
g30
sa(dp229
g28
g11
sg21
V3
sg22
Vr
sg15
F1.3641979694366455
sg23
g27
sg19
g20
sg14
I1
sg29
g30
sa(dp230
g28
g11
sg21
V3
sg22
Vr
sg15
F0.92336797714233398
sg23
g27
sg19
g20
sg14
I1
sg29
g30
sa(dp231
g28
g11
sg21
V3
sg22
Vr
sg15
F0.91967678070068359
sg23
g27
sg19
g20
sg14
I1
sg29
g30
sa(dp232
g28
g11
sg21
V3
sg22
Vr
sg15
F1.9503998756408691
sg23
g27
sg19
g20
sg14
I1
sg29
g30
sa(dp233
g28
g11
sg21
V3
sg22
Vr
sg15
F3.9200401306152344
sg23
g27
sg19
g20
sg14
I1
sg29
g30
sa(dp234
g28
g11
sg21
V3
sg22
Vr
sg15
F3.0193581581115723
sg23
g27
sg19
g20
sg14
I1
sg29
g30
sa(dp235
g28
g11
sg21
V3
sg22
Vr
sg15
F1.5224380493164062
sg23
g27
sg19
g20
sg14
I1
sg29
g30
sa(dp236
g28
g11
sg21
V3
sg22
Vr
sg15
F3.1697108745574951
sg23
g27
sg19
g20
sg14
I0
sg29
g30
sa(dp237
g28
g11
sg21
V3
sg22
Vr
sg15
F2.0852930545806885
sg23
g27
sg19
g20
sg14
I1
sg29
g30
sa(dp238
g28
g11
sg21
V3
sg22
Vr
sg15
F1.5141191482543945
sg23
g27
sg19
g20
sg14
I1
sg29
g30
sa(dp239
g28
g11
sg21
V3
sg22
Vr
sg15
F2.1824681758880615
sg23
g27
sg19
g20
sg14
I1
sg29
g30
sa(dp240
g28
g11
sg21
V3
sg22
Vr
sg15
F2.2834179401397705
sg23
g27
sg19
g20
sg14
I1
sg29
g30
sa(dp241
g28
g11
sg21
V3
sg22
Vr
sg15
F0.91438698768615723
sg23
g27
sg19
g20
sg14
I1
sg29
g30
sa(dp242
g28
g11
sg21
V3
sg22
Vr
sg15
F2.0048220157623291
sg23
g27
sg19
g20
sg14
I1
sg29
g30
sa(dp243
g28
g11
sg21
V3
sg22
Vr
sg15
F2.8684720993041992
sg23
g27
sg19
g20
sg14
I0
sg29
g30
sa(dp244
g28
g11
sg21
V3
sg22
Vr
sg15
F2.7355391979217529
sg23
g27
sg19
g20
sg14
I1
sg29
g30
sa(dp245
g28
g11
sg21
V3
sg22
Vr
sg15
F2.6160190105438232
sg23
g27
sg19
g20
sg14
I1
sg29
g30
sa(dp246
g28
g11
sg21
V3
sg22
Vr
sg15
F1.5365970134735107
sg23
g27
sg19
g20
sg14
I1
sg29
g30
sa(dp247
g28
g11
sg21
V3
sg22
Vr
sg15
F3.447333812713623
sg23
g27
sg19
g20
sg14
I0
sg29
g30
sa(dp248
g28
g11
sg21
V3
sg22
Vr
sg15
F2.1356451511383057
sg23
g27
sg19
g20
sg14
I0
sg29
g30
sa(dp249
g28
g11
sg21
V3
sg22
Vr
sg15
F3.4214069843292236
sg23
g27
sg19
g20
sg14
I0
sg29
g30
sa(dp250
g28
g11
sg21
V3
sg22
Vr
sg15
F1.114267110824585
sg23
g27
sg19
g20
sg14
I1
sg29
g30
sa(dp251
g28
g11
sg21
V3
sg22
Vr
sg15
F1.5841131210327148
sg23
g27
sg19
g20
sg14
I1
sg29
g30
sa(dp252
g28
g11
sg21
V3
sg22
Vr
sg15
F1.5908598899841309
sg23
g27
sg19
g20
sg14
I1
sg29
g30
sa(dp253
g28
g11
sg21
V3
sg22
Vr
sg15
F3.337838888168335
sg23
g27
sg19
g20
sg14
I1
sg29
g30
sa(dp254
g28
g11
sg21
V3
sg22
Vr
sg15
F1.2827870845794678
sg23
g27
sg19
g20
sg14
I1
sg29
g30
sa(dp255
g28
g11
sg21
V3
sg22
Vr
sg15
F1.6645550727844238
sg23
g27
sg19
g20
sg14
I1
sg29
g30
sa(dp256
g28
g11
sg21
V3
sg22
Vr
sg15
F1.5985689163208008
sg23
g27
sg19
g20
sg14
I1
sg29
g30
sa(dp257
g28
g11
sg21
V3
sg22
Vr
sg15
F1.3497889041900635
sg23
g27
sg19
g20
sg14
I1
sg29
g30
sa(dp258
g28
g11
sg21
V3
sg22
Vr
sg15
F1.5388588905334473
sg23
g27
sg19
g20
sg14
I1
sg29
g30
sa(dp259
g28
g11
sg21
V3
sg22
Vr
sg15
F3.1045291423797607
sg23
g27
sg19
g20
sg14
I1
sg29
g30
sa(dp260
g28
g11
sg21
V3
sg22
Vr
sg15
F1.7331171035766602
sg23
g27
sg19
g20
sg14
I1
sg29
g30
sa(dp261
g28
g11
sg21
V3
sg22
Vr
sg15
F1.1324491500854492
sg23
g27
sg19
g20
sg14
I1
sg29
g30
sa(dp262
g28
g11
sg21
V3
sg22
Vr
sg15
F1.799767017364502
sg23
g27
sg19
g20
sg14
I1
sg29
g30
sa(dp263
g28
g11
sg21
V3
sg22
Vr
sg15
F4.589271068572998
sg23
g27
sg19
g20
sg14
I1
sg29
g30
sa(dp264
g28
g11
sg21
V3
sg22
Vr
sg15
F2.7052569389343262
sg23
g27
sg19
g20
sg14
I0
sg29
g30
sa(dp265
g28
g11
sg21
V3
sg22
Vr
sg15
F3.3340411186218262
sg23
g27
sg19
g20
sg14
I1
sg29
g30
sa(dp266
g28
g11
sg21
V3
sg22
Vr
sg15
F2.7191119194030762
sg23
g27
sg19
g20
sg14
I0
sg29
g30
sa(dp267
g28
g11
sg21
V3
sg22
Vr
sg15
F4.098236083984375
sg23
g27
sg19
g20
sg14
I1
sg29
g30
sa(dp268
g28
g11
sg21
V3
sg22
Vr
sg15
F1.47080397605896
sg23
g27
sg19
g20
sg14
I1
sg29
g30
sa(dp269
g28
g11
sg21
V3
sg22
Vr
sg15
F1.373262882232666
sg23
g27
sg19
g20
sg14
I1
sg29
g30
sa(dp270
g28
g11
sg21
V3
sg22
Vr
sg15
F2.6367349624633789
sg23
g27
sg19
g20
sg14
I1
sg29
g30
sa(dp271
g28
g11
sg21
V3
sg22
Vr
sg15
F3.0337319374084473
sg23
g27
sg19
g20
sg14
I0
sg29
g30
sa(dp272
g28
g11
sg21
V3
sg22
Vr
sg15
F4.5728180408477783
sg23
g27
sg19
g20
sg14
I1
sg29
g30
sa(dp273
g28
g11
sg21
V3
sg22
Vr
sg15
F4.464202880859375
sg23
g27
sg19
g20
sg14
I1
sg29
g30
sa(dp274
g28
g11
sg21
V3
sg22
Vr
sg15
F2.8832969665527344
sg23
g27
sg19
g20
sg14
I1
sg29
g30
sa(dp275
g28
g11
sg21
V3
sg22
Vr
sg15
F3.737746000289917
sg23
g27
sg19
g20
sg14
I1
sg29
g30
sa(dp276
g28
g11
sg21
V3
sg22
Vr
sg15
F2.7530579566955566
sg23
g27
sg19
g20
sg14
I0
sg29
g30
sa(dp277
g28
g11
sg21
V3
sg22
Vr
sg15
F1.7708950042724609
sg23
g27
sg19
g20
sg14
I1
sg29
g30
sa(dp278
g28
g11
sg21
V3
sg22
Vr
sg15
F2.7863669395446777
sg23
g27
sg19
g20
sg14
I0
sg29
g30
sa(dp279
g28
g11
sg21
V3
sg22
Vr
sg15
F1.4320509433746338
sg23
g27
sg19
g20
sg14
I1
sg29
g30
sa(dp280
g28
g11
sg21
V3
sg22
Vr
sg15
F3.1864449977874756
sg23
g27
sg19
g20
sg14
I1
sg29
g30
sa(dp281
g28
g11
sg21
V3
sg22
Vr
sg15
F1.549644947052002
sg23
g27
sg19
g20
sg14
I1
sg29
g30
sa(dp282
g28
g11
sg21
V3
sg22
Vr
sg15
F1.3711020946502686
sg23
g27
sg19
g20
sg14
I1
sg29
g30
sa(dp283
g28
g11
sg21
V3
sg22
Vr
sg15
F4.7066059112548828
sg23
g27
sg19
g20
sg14
I1
sg29
g30
sa(dp284
g28
g11
sg21
V3
sg22
Vr
sg15
F1.6153719425201416
sg23
g27
sg19
g20
sg14
I1
sg29
g30
sa(dp285
g28
g11
sg21
V3
sg22
Vr
sg15
F3.5528008937835693
sg23
g27
sg19
g20
sg14
I1
sg29
g30
sa(dp286
g28
g11
sg21
V3
sg22
Vr
sg15
F3.6700301170349121
sg23
g27
sg19
g20
sg14
I0
sg29
g30
sa(dp287
g28
g11
sg21
V3
sg22
Vr
sg15
F2.4237251281738281
sg23
g27
sg19
g20
sg14
I1
sg29
g30
sa(dp288
g28
g11
sg21
V3
sg22
Vr
sg15
F0.96705484390258789
sg23
g27
sg19
g20
sg14
I1
sg29
g30
sa(dp289
g28
g11
sg21
V3
sg22
Vr
sg15
F3.2516729831695557
sg23
g27
sg19
g20
sg14
I0
sg29
g30
sa(dp290
g28
g11
sg21
V3
sg22
Vr
sg15
F3.0513849258422852
sg23
g27
sg19
g20
sg14
I1
sg29
g30
sa(dp291
g28
g11
sg21
V3
sg22
Vr
sg15
F3.4621579647064209
sg23
g27
sg19
g20
sg14
I1
sg29
g30
sa(dp292
g28
g11
sg21
V3
sg22
Vr
sg15
F3.5426499843597412
sg23
g27
sg19
g20
sg14
I1
sg29
g30
sa(dp293
g28
g11
sg21
V3
sg22
Vr
sg15
F1.1184148788452148
sg23
g27
sg19
g20
sg14
I1
sg29
g30
sa(dp294
g28
g11
sg21
V3
sg22
Vr
sg15
F2.5499250888824463
sg23
g27
sg19
g20
sg14
I0
sg29
g30
sa(dp295
g28
g11
sg21
V3
sg22
Vr
sg15
F2.6286740303039551
sg23
g27
sg19
g20
sg14
I0
sg29
g30
sa(dp296
g28
g11
sg21
V3
sg22
Vr
sg15
F2.4215989112854004
sg23
g27
sg19
g20
sg14
I1
sg29
g30
sa(dp297
g28
g11
sg21
V3
sg22
Vr
sg15
F5.2435832023620605
sg23
g27
sg19
g20
sg14
I1
sg29
g30
sa(dp298
g28
g11
sg21
V3
sg22
Vr
sg15
F1.6307520866394043
sg23
g27
sg19
g20
sg14
I1
sg29
g30
sa(dp299
g28
g11
sg21
V3
sg22
Vr
sg15
F1.3291640281677246
sg23
g27
sg19
g20
sg14
I1
sg29
g30
sa(dp300
g28
g11
sg21
V3
sg22
Vr
sg15
F2.0824379920959473
sg23
g27
sg19
g20
sg14
I1
sg29
g30
sa(dp301
g28
g11
sg21
V3
sg22
Vr
sg15
F2.8848369121551514
sg23
g27
sg19
g20
sg14
I0
sg29
g30
sa(dp302
g28
g11
sg21
V3
sg22
Vr
sg15
F1.4652509689331055
sg23
g27
sg19
g20
sg14
I1
sg29
g30
sa(dp303
g28
g11
sg21
V3
sg22
Vr
sg15
F0.83446788787841797
sg23
g27
sg19
g20
sg14
I1
sg29
g30
sa(dp304
g28
g11
sg21
V3
sg22
Vr
sg15
F2.6701111793518066
sg23
g27
sg19
g20
sg14
I1
sg29
g30
sa(dp305
g28
g11
sg21
V3
sg22
Vr
sg15
F2.1993808746337891
sg23
g27
sg19
g20
sg14
I1
sg29
g30
sa(dp306
g28
g11
sg21
V3
sg22
Vr
sg15
F1.4643471240997314
sg23
g27
sg19
g20
sg14
I1
sg29
g30
sa(dp307
g28
g11
sg21
V3
sg22
Vr
sg15
F1.4751040935516357
sg23
g27
sg19
g20
sg14
I1
sg29
g30
sa(dp308
g28
g11
sg21
V3
sg22
Vr
sg15
F3.2107720375061035
sg23
g27
sg19
g20
sg14
I0
sg29
g30
sa(dp309
g28
g11
sg21
V3
sg22
Vr
sg15
F1.4705240726470947
sg23
g27
sg19
g20
sg14
I1
sg29
g30
sa(dp310
g28
g11
sg21
V3
sg22
Vr
sg15
F1.0641231536865234
sg23
g27
sg19
g20
sg14
I1
sg29
g30
sa(dp311
g28
g11
sg21
V3
sg22
Vr
sg15
F1.1975409984588623
sg23
g27
sg19
g20
sg14
I1
sg29
g30
sa(dp312
g28
g11
sg21
V3
sg22
Vr
sg15
F1.4678869247436523
sg23
g27
sg19
g20
sg14
I1
sg29
g30
sa(dp313
g28
g11
sg21
V3
sg22
Vr
sg15
F2.7664999961853027
sg23
g27
sg19
g20
sg14
I0
sg29
g30
sa(dp314
g28
g11
sg21
V3
sg22
Vr
sg15
F1.2494769096374512
sg23
g27
sg19
g20
sg14
I1
sg29
g30
sa(dp315
g28
g11
sg21
V3
sg22
Vr
sg15
F1.2190780639648438
sg23
g27
sg19
g20
sg14
I1
sg29
g30
sa(dp316
g28
g11
sg21
V3
sg22
Vr
sg15
F0.88140702247619629
sg23
g27
sg19
g20
sg14
I1
sg29
g30
sa(dp317
g28
g11
sg21
V3
sg22
Vr
sg15
F1.7154800891876221
sg23
g27
sg19
g20
sg14
I1
sg29
g30
sa(dp318
g28
g11
sg21
V3
sg22
Vr
sg15
F1.6666159629821777
sg23
g27
sg19
g20
sg14
I1
sg29
g30
sa(dp319
g28
g11
sg21
V3
sg22
Vr
sg15
F1.3467202186584473
sg23
g27
sg19
g20
sg14
I1
sg29
g30
sa(dp320
g28
g11
sg21
V3
sg22
Vr
sg15
F2.9435069561004639
sg23
g27
sg19
g20
sg14
I0
sg29
g30
sa(dp321
g28
g11
sg21
V3
sg22
Vr
sg15
F1.4702780246734619
sg23
g27
sg19
g20
sg14
I1
sg29
g30
sa(dp322
g28
g11
sg21
V3
sg22
Vr
sg15
F2.9673099517822266
sg23
g27
sg19
g20
sg14
I1
sg29
g30
sa(dp323
g28
g11
sg21
V3
sg22
Vr
sg15
F2.7008070945739746
sg23
g27
sg19
g20
sg14
I1
sg29
g30
sa(dp324
g28
g11
sg21
V3
sg22
Vr
sg15
F0.83107590675354004
sg23
g27
sg19
g20
sg14
I1
sg29
g30
sa(dp325
g28
g11
sg21
V3
sg22
Vr
sg15
F0.94687914848327637
sg23
g27
sg19
g20
sg14
I1
sg29
g30
sa(dp326
g28
g11
sg21
V3
sg22
Vr
sg15
F0.88007998466491699
sg23
g27
sg19
g20
sg14
I1
sg29
g30
sa(dp327
g28
g11
sg21
V3
sg22
Vr
sg15
F2.6921520233154297
sg23
g27
sg19
g20
sg14
I1
sg29
g30
sa(dp328
g28
g11
sg21
V3
sg22
Vr
sg15
F2.7879359722137451
sg23
g27
sg19
g20
sg14
I0
sg29
g30
sa(dp329
g28
g11
sg21
V3
sg22
Vr
sg15
F1.9176180362701416
sg23
g27
sg19
g20
sg14
I0
sg29
g30
sa(dp330
g28
g11
sg21
V3
sg22
Vr
sg15
F1.3808047771453857
sg23
g27
sg19
g20
sg14
I1
sg29
g30
sa(dp331
g28
g11
sg21
V3
sg22
Vr
sg15
F1.4990708827972412
sg23
g27
sg19
g20
sg14
I1
sg29
g30
sa(dp332
g28
g11
sg21
V3
sg22
Vr
sg15
F2.8504948616027832
sg23
g27
sg19
g20
sg14
I1
sg29
g30
sa(dp333
g28
g11
sg21
V3
sg22
Vr
sg15
F1.5187239646911621
sg23
g27
sg19
g20
sg14
I1
sg29
g30
sa(dp334
g28
g11
sg21
V3
sg22
Vr
sg15
F3.2399508953094482
sg23
g27
sg19
g20
sg14
I1
sg29
g30
sa(dp335
g28
g11
sg21
V3
sg22
Vr
sg15
F3.5027620792388916
sg23
g27
sg19
g20
sg14
I1
sg29
g30
sa(dp336
g28
g11
sg21
V3
sg22
Vr
sg15
F1.8837270736694336
sg23
g27
sg19
g20
sg14
I1
sg29
g30
sa(dp337
g28
g11
sg21
V3
sg22
Vr
sg15
F1.5314371585845947
sg23
g27
sg19
g20
sg14
I1
sg29
g30
sa(dp338
g28
g11
sg21
V3
sg22
Vr
sg15
F2.9286689758300781
sg23
g27
sg19
g20
sg14
I1
sg29
g30
sa(dp339
g28
g11
sg21
V3
sg22
Vr
sg15
F5.189640998840332
sg23
g27
sg19
g20
sg14
I0
sg29
g30
sa(dp340
g28
g11
sg21
V3
sg22
Vr
sg15
F3.8349599838256836
sg23
g27
sg19
g20
sg14
I0
sg29
g30
sa(dp341
g28
g11
sg21
V3
sg22
Vr
sg15
F2.6169211864471436
sg23
g27
sg19
g20
sg14
I0
sg29
g30
sa(dp342
g28
g11
sg21
V3
sg22
Vr
sg15
F1.5683550834655762
sg23
g27
sg19
g20
sg14
I1
sg29
g30
sa(dp343
g28
g11
sg21
V3
sg22
Vr
sg15
F3.3592700958251953
sg23
g27
sg19
g20
sg14
I0
sg29
g30
sa(dp344
g28
g11
sg21
V3
sg22
Vr
sg15
F1.3652999401092529
sg23
g27
sg19
g20
sg14
I1
sg29
g30
sa(dp345
g28
g11
sg21
V3
sg22
Vr
sg15
F4.7041521072387695
sg23
g27
sg19
g20
sg14
I1
sg29
g30
sa(dp346
g28
g11
sg21
V3
sg22
Vr
sg15
F0.86446905136108398
sg23
g27
sg19
g20
sg14
I1
sg29
g30
sa(dp347
g28
g11
sg21
V3
sg22
Vr
sg15
F1.3819210529327393
sg23
g27
sg19
g20
sg14
I1
sg29
g30
sa(dp348
g28
g11
sg21
V3
sg22
Vr
sg15
F2.5404260158538818
sg23
g27
sg19
g20
sg14
I1
sg29
g30
sa(dp349
g28
g11
sg21
V3
sg22
Vr
sg15
F1.3874568939208984
sg23
g27
sg19
g20
sg14
I1
sg29
g30
sa(dp350
g28
g11
sg21
V3
sg22
Vr
sg15
F3.5020408630371094
sg23
g27
sg19
g20
sg14
I0
sg29
g30
sa(dp351
g28
g11
sg21
V3
sg22
Vr
sg15
F2.8343269824981689
sg23
g27
sg19
g20
sg14
I0
sg29
g30
sa(dp352
g28
g11
sg21
V3
sg22
Vr
sg15
F1.6984360218048096
sg23
g27
sg19
g20
sg14
I1
sg29
g30
sa(dp353
g28
g11
sg21
V3
sg22
Vr
sg15
F2.7366499900817871
sg23
g27
sg19
g20
sg14
I1
sg29
g30
sa(dp354
g28
g11
sg21
V3
sg22
Vr
sg15
F1.406390905380249
sg23
g27
sg19
g20
sg14
I1
sg29
g30
sa(dp355
g28
g11
sg21
V3
sg22
Vr
sg15
F2.888559103012085
sg23
g27
sg19
g20
sg14
I0
sg29
g30
sa(dp356
g28
g11
sg21
V3
sg22
Vr
sg15
F1.398745059967041
sg23
g27
sg19
g20
sg14
I1
sg29
g30
sa(dp357
g28
g11
sg21
V3
sg22
Vr
sg15
F3.2691221237182617
sg23
g27
sg19
g20
sg14
I0
sg29
g30
sa(dp358
g28
g11
sg21
V3
sg22
Vr
sg15
F1.5166599750518799
sg23
g27
sg19
g20
sg14
I1
sg29
g30
sa(dp359
g28
g11
sg21
V3
sg22
Vr
sg15
F1.7459979057312012
sg23
g27
sg19
g20
sg14
I1
sg29
g30
sa(dp360
g28
g11
sg21
V3
sg22
Vr
sg15
F4.5379409790039062
sg23
g27
sg19
g20
sg14
I0
sg29
g30
sa(dp361
g28
g11
sg21
V3
sg22
Vr
sg15
F5.0011820793151855
sg23
g27
sg19
g20
sg14
I1
sg29
g30
sa(dp362
g28
g11
sg21
V3
sg22
Vr
sg15
F1.1151010990142822
sg23
g27
sg19
g20
sg14
I1
sg29
g30
sa(dp363
g28
g11
sg21
V3
sg22
Vr
sg15
F1.1131689548492432
sg23
g27
sg19
g20
sg14
I1
sg29
g30
sa(dp364
g28
g11
sg21
V3
sg22
Vr
sg15
F1.4915010929107666
sg23
g27
sg19
g20
sg14
I1
sg29
g30
sa(dp365
g28
g11
sg21
V3
sg22
Vr
sg15
F0.73093008995056152
sg23
g27
sg19
g20
sg14
I1
sg29
g30
sa(dp366
g28
g11
sg21
V3
sg22
Vr
sg15
F2.5185348987579346
sg23
g27
sg19
g20
sg14
I0
sg29
g30
sa(dp367
g28
g11
sg21
V3
sg22
Vr
sg15
F1.6486940383911133
sg23
g27
sg19
g20
sg14
I1
sg29
g30
sa(dp368
g28
g11
sg21
V3
sg22
Vr
sg15
F1.5482790470123291
sg23
g27
sg19
g20
sg14
I1
sg29
g30
sa(dp369
g28
g11
sg21
V3
sg22
Vr
sg15
F0.96407294273376465
sg23
g27
sg19
g20
sg14
I1
sg29
g30
sa(dp370
g28
g11
sg21
V3
sg22
Vr
sg15
F1.6918489933013916
sg23
g27
sg19
g20
sg14
I1
sg29
g30
sa(dp371
g28
g11
sg21
V3
sg22
Vr
sg15
F2.640765905380249
sg23
g27
sg19
g20
sg14
I0
sg29
g30
sa(dp372
g28
g11
sg21
V3
sg22
Vr
sg15
F1.4374330043792725
sg23
g27
sg19
g20
sg14
I1
sg29
g30
sa(dp373
g28
g11
sg21
V3
sg22
Vr
sg15
F1.4321708679199219
sg23
g27
sg19
g20
sg14
I1
sg29
g30
sa(dp374
g28
g11
sg21
V3
sg22
Vr
sg15
F1.2981328964233398
sg23
g27
sg19
g20
sg14
I1
sg29
g30
sa(dp375
g28
g11
sg21
V3
sg22
Vr
sg15
F1.5150699615478516
sg23
g27
sg19
g20
sg14
I1
sg29
g30
sa(dp376
g28
g11
sg21
V3
sg22
Vr
sg15
F1.4655299186706543
sg23
g27
sg19
g20
sg14
I1
sg29
g30
sa(dp377
g28
g11
sg21
V3
sg22
Vr
sg15
F3.0544190406799316
sg23
g27
sg19
g20
sg14
I1
sg29
g30
sa(dp378
g28
g11
sg21
V3
sg22
Vr
sg15
F2.8511741161346436
sg23
g27
sg19
g20
sg14
I0
sg29
g30
sa(dp379
g28
g11
sg21
V3
sg22
Vr
sg15
F0.88031101226806641
sg23
g27
sg19
g20
sg14
I1
sg29
g30
sa(dp380
g28
g11
sg21
V3
sg22
Vr
sg15
F1.6329669952392578
sg23
g27
sg19
g20
sg14
I1
sg29
g30
sa(dp381
g28
g11
sg21
V3
sg22
Vr
sg15
F1.5492081642150879
sg23
g27
sg19
g20
sg14
I1
sg29
g30
sa(dp382
g28
g11
sg21
V3
sg22
Vr
sg15
F3.1536660194396973
sg23
g27
sg19
g20
sg14
I0
sg29
g30
sa(dp383
g28
g11
sg21
V3
sg22
Vr
sg15
F2.4878320693969727
sg23
g27
sg19
g20
sg14
I1
sg29
g30
sa(dp384
g28
g11
sg21
V3
sg22
Vr
sg15
F2.120441198348999
sg23
g27
sg19
g20
sg14
I1
sg29
g30
sa(dp385
g28
g11
sg21
V3
sg22
Vr
sg15
F1.0657291412353516
sg23
g27
sg19
g20
sg14
I1
sg29
g30
sa(dp386
g28
g11
sg21
V3
sg22
Vr
sg15
F0.8815910816192627
sg23
g27
sg19
g20
sg14
I1
sg29
g30
sa(dp387
g28
g11
sg21
V3
sg22
Vr
sg15
F1.5511331558227539
sg23
g27
sg19
g20
sg14
I1
sg29
g30
sa(dp388
g28
g11
sg21
V3
sg22
Vr
sg15
F1.4980220794677734
sg23
g27
sg19
g20
sg14
I1
sg29
g30
sa(dp389
g28
g11
sg21
V3
sg22
Vr
sg15
F1.3875589370727539
sg23
g27
sg19
g20
sg14
I1
sg29
g30
sa(dp390
g28
g11
sg21
V3
sg22
Vr
sg15
F1.9054989814758301
sg23
g27
sg19
g20
sg14
I1
sg29
g30
sa(dp391
g28
g11
sg21
V3
sg22
Vr
sg15
F1.7028090953826904
sg23
g27
sg19
g20
sg14
I1
sg29
g30
sa(dp392
g28
g11
sg21
V3
sg22
Vr
sg15
F2.1326649188995361
sg23
g27
sg19
g20
sg14
I1
sg29
g30
sa(dp393
g28
g11
sg21
V3
sg22
Vr
sg15
F1.4612669944763184
sg23
g27
sg19
g20
sg14
I1
sg29
g30
sa(dp394
g28
g11
sg21
V3
sg22
Vr
sg15
F1.3988490104675293
sg23
g27
sg19
g20
sg14
I1
sg29
g30
sa(dp395
g28
g11
sg21
V3
sg22
Vr
sg15
F2.1061179637908936
sg23
g27
sg19
g20
sg14
I1
sg29
g30
sa(dp396
g28
g11
sg21
V3
sg22
Vr
sg15
F3.7897920608520508
sg23
g27
sg19
g20
sg14
I1
sg29
g30
sa(dp397
g28
g11
sg21
V3
sg22
Vr
sg15
F3.1025040149688721
sg23
g27
sg19
g20
sg14
I1
sg29
g30
sa(dp398
g28
g11
sg21
V3
sg22
Vr
sg15
F1.4494228363037109
sg23
g27
sg19
g20
sg14
I1
sg29
g30
sa(dp399
g28
g11
sg21
V3
sg22
Vr
sg15
F1.0131869316101074
sg23
g27
sg19
g20
sg14
I1
sg29
g30
sa(dp400
g28
g11
sg21
V3
sg22
Vr
sg15
F2.785883903503418
sg23
g27
sg19
g20
sg14
I0
sg29
g30
sa(dp401
g28
g11
sg21
V3
sg22
Vr
sg15
F3.2357399463653564
sg23
g27
sg19
g20
sg14
I0
sg29
g30
sa(dp402
g28
g11
sg21
V3
sg22
Vr
sg15
F1.497866153717041
sg23
g27
sg19
g20
sg14
I1
sg29
g30
sa(dp403
g28
g11
sg21
V3
sg22
Vr
sg15
F1.5474269390106201
sg23
g27
sg19
g20
sg14
I1
sg29
g30
sa(dp404
g28
g11
sg21
V3
sg22
Vr
sg15
F1.3642799854278564
sg23
g27
sg19
g20
sg14
I1
sg29
g30
sa(dp405
g28
g11
sg21
V3
sg22
Vr
sg15
F2.70169997215271
sg23
g27
sg19
g20
sg14
I1
sg29
g30
sa(dp406
g28
g11
sg21
V3
sg22
Vr
sg15
F2.173058032989502
sg23
g27
sg19
g20
sg14
I0
sg29
g30
sa(dp407
g28
g11
sg21
V3
sg22
Vr
sg15
F0.96425104141235352
sg23
g27
sg19
g20
sg14
I1
sg29
g30
sa(dp408
g28
g11
sg21
V3
sg22
Vr
sg15
F2.4808008670806885
sg23
g27
sg19
g20
sg14
I0
sg29
g30
sa(dp409
g28
g11
sg21
V3
sg22
Vr
sg15
F2.451038122177124
sg23
g27
sg19
g20
sg14
I0
sg29
g30
sa(dp410
g28
g11
sg21
V3
sg22
Vr
sg15
F1.3617689609527588
sg23
g27
sg19
g20
sg14
I1
sg29
g30
sa(dp411
g28
g11
sg21
V3
sg22
Vr
sg15
F2.2319760322570801
sg23
g27
sg19
g20
sg14
I0
sg29
g30
sa(dp412
g28
g11
sg21
V3
sg22
Vr
sg15
F2.535200834274292
sg23
g27
sg19
g20
sg14
I0
sg29
g30
sa(dp413
g28
g11
sg21
V3
sg22
Vr
sg15
F1.0154139995574951
sg23
g27
sg19
g20
sg14
I1
sg29
g30
sa(dp414
g28
g11
sg21
V3
sg22
Vr
sg15
F1.5515670776367188
sg23
g27
sg19
g20
sg14
I1
sg29
g30
sa(dp415
g28
g11
sg21
V3
sg22
Vr
sg15
F1.4319641590118408
sg23
g27
sg19
g20
sg14
I1
sg29
g30
sa(dp416
g28
g11
sg21
V3
sg22
Vr
sg15
F1.5492238998413086
sg23
g27
sg19
g20
sg14
I1
sg29
g30
sa(dp417
g28
g11
sg21
V3
sg22
Vr
sg15
F2.5336861610412598
sg23
g27
sg19
g20
sg14
I1
sg29
g30
sa(dp418
g28
g11
sg21
V3
sg22
Vr
sg15
F2.042396068572998
sg23
g27
sg19
g20
sg14
I1
sg29
g30
sa(dp419
g28
g11
sg21
V3
sg22
Vr
sg15
F3.6219170093536377
sg23
g27
sg19
g20
sg14
I0
sg29
g30
sa(dp420
g28
g11
sg21
V3
sg22
Vr
sg15
F2.6352629661560059
sg23
g27
sg19
g20
sg14
I0
sg29
g30
sa(dp421
g28
g11
sg21
V3
sg22
Vr
sg15
F2.1144869327545166
sg23
g27
sg19
g20
sg14
I0
sg29
g30
sa(dp422
g28
g11
sg21
V3
sg22
Vr
sg15
F2.1524758338928223
sg23
g27
sg19
g20
sg14
I1
sg29
g30
sa(dp423
g28
g11
sg21
V3
sg22
Vr
sg15
F0.99812817573547363
sg23
g27
sg19
g20
sg14
I1
sg29
g30
sa(dp424
g28
g11
sg21
V3
sg22
Vr
sg15
F4.0612659454345703
sg23
g27
sg19
g20
sg14
I0
sg29
g30
sa(dp425
g28
g11
sg21
V3
sg22
Vr
sg15
F1.6354300975799561
sg23
g27
sg19
g20
sg14
I1
sg29
g30
sa(dp426
g28
g11
sg21
V3
sg22
Vr
sg15
F4.6055059432983398
sg23
g27
sg19
g20
sg14
I1
sg29
g30
sa(dp427
g28
g11
sg21
V3
sg22
Vr
sg15
F3.75583815574646
sg23
g27
sg19
g20
sg14
I0
sg29
g30
sa(dp428
g28
g11
sg21
V3
sg22
Vr
sg15
F1.7158939838409424
sg23
g27
sg19
g20
sg14
I1
sg29
g30
sa(dp429
g28
g11
sg21
V3
sg22
Vr
sg15
F1.4824538230895996
sg23
g27
sg19
g20
sg14
I1
sg29
g30
sa(dp430
g28
g11
sg21
V3
sg22
Vr
sg15
F1.26715087890625
sg23
g27
sg19
g20
sg14
I1
sg29
g30
sa(dp431
g28
g11
sg21
V3
sg22
Vr
sg15
F1.5807740688323975
sg23
g27
sg19
g20
sg14
I1
sg29
g30
sa(dp432
g28
g11
sg21
V3
sg22
Vr
sg15
F4.1874608993530273
sg23
g27
sg19
g20
sg14
I0
sg29
g30
sa(dp433
g28
g11
sg21
V3
sg22
Vr
sg15
F0.94717192649841309
sg23
g27
sg19
g20
sg14
I1
sg29
g30
sa(dp434
g28
g11
sg21
V3
sg22
Vr
sg15
F1.3323609828948975
sg23
g27
sg19
g20
sg14
I1
sg29
g30
sa(dp435
g28
g11
sg21
V3
sg22
Vr
sg15
F2.9533798694610596
sg23
g27
sg19
g20
sg14
I1
sg29
g30
sa(dp436
g28
g11
sg21
V3
sg22
Vr
sg15
F1.3865361213684082
sg23
g27
sg19
g20
sg14
I1
sg29
g30
sa(dp437
g28
g11
sg21
V3
sg22
Vr
sg15
F4.1022820472717285
sg23
g27
sg19
g20
sg14
I1
sg29
g30
sa(dp438
g28
g11
sg21
V3
sg22
Vr
sg15
F1.6846129894256592
sg23
g27
sg19
g20
sg14
I1
sg29
g30
sa(dp439
g28
g11
sg21
V3
sg22
Vr
sg15
F4.3536410331726074
sg23
g27
sg19
g20
sg14
I1
sg29
g30
sa(dp440
g28
g11
sg21
V3
sg22
Vr
sg15
F1.4364640712738037
sg23
g27
sg19
g20
sg14
I1
sg29
g30
sa(dp441
g28
g11
sg21
V3
sg22
Vr
sg15
F2.8341248035430908
sg23
g27
sg19
g20
sg14
I1
sg29
g30
sa(dp442
g28
g11
sg21
V3
sg22
Vr
sg15
F3.2990779876708984
sg23
g27
sg19
g20
sg14
I1
sg29
g30
sa(dp443
g28
g11
sg21
V3
sg22
Vr
sg15
F1.4480769634246826
sg23
g27
sg19
g20
sg14
I1
sg29
g30
sa(dp444
g28
g11
sg21
V3
sg22
Vr
sg15
F1.3279819488525391
sg23
g27
sg19
g20
sg14
I1
sg29
g30
sa(dp445
g28
g11
sg21
V3
sg22
Vr
sg15
F1.2723889350891113
sg23
g27
sg19
g20
sg14
I1
sg29
g30
sa(dp446
g28
g11
sg21
V3
sg22
Vr
sg15
F1.4518911838531494
sg23
g27
sg19
g20
sg14
I1
sg29
g30
sa(dp447
g28
g11
sg21
V3
sg22
Vr
sg15
F3.0014579296112061
sg23
g27
sg19
g20
sg14
I1
sg29
g30
sa(dp448
g28
g11
sg21
V3
sg22
Vr
sg15
F1.0155749320983887
sg23
g27
sg19
g20
sg14
I1
sg29
g30
sa(dp449
g28
g11
sg21
V3
sg22
Vr
sg15
F2.7792069911956787
sg23
g27
sg19
g20
sg14
I1
sg29
g30
sa(dp450
g28
g11
sg21
V3
sg22
Vr
sg15
F2.5663511753082275
sg23
g27
sg19
g20
sg14
I1
sg29
g30
sa(dp451
g28
g11
sg21
V3
sg22
Vr
sg15
F5.2388827800750732
sg23
g27
sg19
g20
sg14
I0
sg29
g30
sa(dp452
g28
g11
sg21
V3
sg22
Vr
sg15
F2.5755162239074707
sg23
g27
sg19
g20
sg14
I0
sg29
g30
sa(dp453
g28
g11
sg21
V3
sg22
Vr
sg15
F1.3034079074859619
sg23
g27
sg19
g20
sg14
I0
sg29
g30
sa(dp454
g28
g11
sg21
V3
sg22
Vr
sg15
F1.7325479984283447
sg23
g27
sg19
g20
sg14
I1
sg29
g30
sa(dp455
g28
g11
sg21
V3
sg22
Vr
sg15
F1.4984149932861328
sg23
g27
sg19
g20
sg14
I1
sg29
g30
sa(dp456
g28
g11
sg21
V3
sg22
Vr
sg15
F1.3808310031890869
sg23
g27
sg19
g20
sg14
I1
sg29
g30
sa(dp457
g28
g11
sg21
V3
sg22
Vr
sg15
F1.5297329425811768
sg23
g27
sg19
g20
sg14
I1
sg29
g30
sa(dp458
g28
g11
sg21
V3
sg22
Vr
sg15
F4.2102301120758057
sg23
g27
sg19
g20
sg14
I1
sg29
g30
sa(dp459
g28
g11
sg21
V3
sg22
Vr
sg15
F1.4858880043029785
sg23
g27
sg19
g20
sg14
I1
sg29
g30
sa(dp460
g28
g11
sg21
V3
sg22
Vr
sg15
F2.2378499507904053
sg23
g27
sg19
g20
sg14
I1
sg29
g30
sa(dp461
g28
g11
sg21
V3
sg22
Vr
sg15
F1.3668479919433594
sg23
g27
sg19
g20
sg14
I1
sg29
g30
sa(dp462
g28
g11
sg21
V3
sg22
Vr
sg15
F1.3308460712432861
sg23
g27
sg19
g20
sg14
I0
sg29
g30
sa(dp463
g28
g11
sg21
V3
sg22
Vr
sg15
F1.4007499217987061
sg23
g27
sg19
g20
sg14
I1
sg29
g30
sa(dp464
g28
g11
sg21
V3
sg22
Vr
sg15
F1.4325668811798096
sg23
g27
sg19
g20
sg14
I1
sg29
g30
sa(dp465
g28
g11
sg21
V3
sg22
Vr
sg15
F1.2303919792175293
sg23
g27
sg19
g20
sg14
I1
sg29
g30
sa(dp466
g28
g11
sg21
V3
sg22
Vr
sg15
F2.6844868659973145
sg23
g27
sg19
g20
sg14
I0
sg29
g30
sa(dp467
g28
g11
sg21
V3
sg22
Vr
sg15
F1.9333930015563965
sg23
g27
sg19
g20
sg14
I1
sg29
g30
sa(dp468
g28
g11
sg21
V3
sg22
Vr
sg15
F3.1830430030822754
sg23
g27
sg19
g20
sg14
I1
sg29
g30
sa(dp469
g28
g11
sg21
V3
sg22
Vr
sg15
F1.8997499942779541
sg23
g27
sg19
g20
sg14
I1
sg29
g30
sa(dp470
g28
g11
sg21
V3
sg22
Vr
sg15
F4.0890121459960938
sg23
g27
sg19
g20
sg14
I0
sg29
g30
sa(dp471
g28
g11
sg21
V3
sg22
Vr
sg15
F1.4488170146942139
sg23
g27
sg19
g20
sg14
I1
sg29
g30
sa(dp472
g28
g11
sg21
V3
sg22
Vr
sg15
F2.501162052154541
sg23
g27
sg19
g20
sg14
I0
sg29
g30
sa(dp473
g28
g11
sg21
V3
sg22
Vr
sg15
F5.4710121154785156
sg23
g27
sg19
g20
sg14
I1
sg29
g30
sa(dp474
g28
g11
sg21
V3
sg22
Vr
sg15
F1.5810451507568359
sg23
g27
sg19
g20
sg14
I1
sg29
g30
sa(dp475
g28
g11
sg21
V3
sg22
Vr
sg15
F1.7377710342407227
sg23
g27
sg19
g20
sg14
I1
sg29
g30
sa(dp476
g28
g11
sg21
V3
sg22
Vr
sg15
F3.4703500270843506
sg23
g27
sg19
g20
sg14
I0
sg29
g30
sa(dp477
g28
g11
sg21
V3
sg22
Vr
sg15
F2.4168519973754883
sg23
g27
sg19
g20
sg14
I1
sg29
g30
sa(dp478
g28
g11
sg21
V3
sg22
Vr
sg15
F2.8515260219573975
sg23
g27
sg19
g20
sg14
I1
sg29
g30
sa(dp479
g28
g11
sg21
V3
sg22
Vr
sg15
F5.0373718738555908
sg23
g27
sg19
g20
sg14
I0
sg29
g30
sa(dp480
g28
g11
sg21
V3
sg22
Vr
sg15
F2.7167940139770508
sg23
g27
sg19
g20
sg14
I1
sg29
g30
sa(dp481
g28
g11
sg21
V3
sg22
Vr
sg15
F1.51239013671875
sg23
g27
sg19
g20
sg14
I1
sg29
g30
sa(dp482
g28
g11
sg21
V3
sg22
Vr
sg15
F2.599761962890625
sg23
g27
sg19
g20
sg14
I1
sg29
g30
sa(dp483
g28
g11
sg21
V3
sg22
Vr
sg15
F2.2372229099273682
sg23
g27
sg19
g20
sg14
I0
sg29
g30
sa(dp484
g28
g11
sg21
V3
sg22
Vr
sg15
F1.3654661178588867
sg23
g27
sg19
g20
sg14
I1
sg29
g30
sa(dp485
g28
g11
sg21
V3
sg22
Vr
sg15
F1.5655689239501953
sg23
g27
sg19
g20
sg14
I1
sg29
g30
sa(dp486
g28
g11
sg21
V3
sg22
Vr
sg15
F2.5505352020263672
sg23
g27
sg19
g20
sg14
I0
sg29
g30
sa(dp487
g28
g11
sg21
V3
sg22
Vr
sg15
F2.3033649921417236
sg23
g27
sg19
g20
sg14
I1
sg29
g30
sa(dp488
g28
g11
sg21
V3
sg22
Vr
sg15
F2.8248679637908936
sg23
g27
sg19
g20
sg14
I0
sg29
g30
sa(dp489
g28
g11
sg21
V3
sg22
Vr
sg15
F1.553009033203125
sg23
g27
sg19
g20
sg14
I1
sg29
g30
sa(dp490
g28
g11
sg21
V3
sg22
Vr
sg15
F2.5349462032318115
sg23
g27
sg19
g20
sg14
I1
sg29
g30
sa(dp491
g28
g11
sg21
V3
sg22
Vr
sg15
F2.150475025177002
sg23
g27
sg19
g20
sg14
I0
sg29
g30
sa(dp492
g28
g11
sg21
V3
sg22
Vr
sg15
F1.5845768451690674
sg23
g27
sg19
g20
sg14
I1
sg29
g30
sa(dp493
g28
g11
sg21
V3
sg22
Vr
sg15
F1.3921890258789062
sg23
g27
sg19
g20
sg14
I1
sg29
g30
sa(dp494
g28
g11
sg21
V3
sg22
Vr
sg15
F1.5923981666564941
sg23
g27
sg19
g20
sg14
I1
sg29
g30
sa(dp495
g28
g11
sg21
V3
sg22
Vr
sg15
F1.4876730442047119
sg23
g27
sg19
g20
sg14
I1
sg29
g30
sa(dp496
g28
g11
sg21
V3
sg22
Vr
sg15
F1.5171217918395996
sg23
g27
sg19
g20
sg14
I1
sg29
g30
sa(dp497
g28
g11
sg21
V3
sg22
Vr
sg15
F26.643326997756958
sg23
g27
sg19
g20
sg14
I0
sg29
g30
sa(dp498
g28
g11
sg21
V3
sg22
Vr
sg15
F1.2661628723144531
sg23
g27
sg19
g20
sg14
I1
sg29
g30
sa(dp499
g28
g11
sg21
V3
sg22
Vr
sg15
F1.8649439811706543
sg23
g27
sg19
g20
sg14
I1
sg29
g30
sa(dp500
g28
g11
sg21
V3
sg22
Vr
sg15
F2.3874619007110596
sg23
g27
sg19
g20
sg14
I1
sg29
g30
sa(dp501
g28
g11
sg21
V3
sg22
Vr
sg15
F2.0507211685180664
sg23
g27
sg19
g20
sg14
I1
sg29
g30
sa(dp502
g28
g11
sg21
V3
sg22
Vr
sg15
F0.94771003723144531
sg23
g27
sg19
g20
sg14
I1
sg29
g30
sa(dp503
g28
g11
sg21
V3
sg22
Vr
sg15
F1.6991069316864014
sg23
g27
sg19
g20
sg14
I1
sg29
g30
sa(dp504
g28
g11
sg21
V3
sg22
Vr
sg15
F2.6838090419769287
sg23
g27
sg19
g20
sg14
I1
sg29
g30
sa(dp505
g28
g11
sg21
V3
sg22
Vr
sg15
F2.1582181453704834
sg23
g27
sg19
g20
sg14
I1
sg29
g30
sa(dp506
g28
g11
sg21
V3
sg22
Vr
sg15
F1.6012351512908936
sg23
g27
sg19
g20
sg14
I1
sg29
g30
sa(dp507
g28
g11
sg21
V3
sg22
Vr
sg15
F3.0364320278167725
sg23
g27
sg19
g20
sg14
I0
sg29
g30
sa(dp508
g28
g11
sg21
V3
sg22
Vr
sg15
F0.94790911674499512
sg23
g27
sg19
g20
sg14
I1
sg29
g30
sa(dp509
g28
g11
sg21
V3
sg22
Vr
sg15
F1.8814318180084229
sg23
g27
sg19
g20
sg14
I1
sg29
g30
sa(dp510
g28
g11
sg21
V3
sg22
Vr
sg15
F1.5014128684997559
sg23
g27
sg19
g20
sg14
I1
sg29
g30
sa(dp511
g28
g11
sg21
V3
sg22
Vr
sg15
F1.775825023651123
sg23
g27
sg19
g20
sg14
I1
sg29
g30
sa(dp512
g28
g11
sg21
V3
sg22
Vr
sg15
F2.286221981048584
sg23
g27
sg19
g20
sg14
I1
sg29
g30
sa(dp513
g28
g11
sg21
V3
sg22
Vr
sg15
F1.6670379638671875
sg23
g27
sg19
g20
sg14
I1
sg29
g30
sa(dp514
g28
g11
sg21
V3
sg22
Vr
sg15
F0.94950199127197266
sg23
g27
sg19
g20
sg14
I1
sg29
g30
sa(dp515
g28
g11
sg21
V3
sg22
Vr
sg15
F3.2362060546875
sg23
g27
sg19
g20
sg14
I1
sg29
g30
sa(dp516
g28
g11
sg21
V3
sg22
Vr
sg15
F1.5089311599731445
sg23
g27
sg19
g20
sg14
I1
sg29
g30
sa(dp517
g28
g11
sg21
V3
sg22
Vr
sg15
F2.8029520511627197
sg23
g27
sg19
g20
sg14
I1
sg29
g30
sa(dp518
g28
g11
sg21
V3
sg22
Vr
sg15
F3.316615104675293
sg23
g27
sg19
g20
sg14
I1
sg29
g30
sa(dp519
g28
g11
sg21
V3
sg22
Vr
sg15
F3.784977912902832
sg23
g27
sg19
g20
sg14
I1
sg29
g30
sa(dp520
g28
g11
sg21
V3
sg22
Vr
sg15
F2.7839119434356689
sg23
g27
sg19
g20
sg14
I0
sg29
g30
sa(dp521
g28
g11
sg21
V3
sg22
Vr
sg15
F3.4027669429779053
sg23
g27
sg19
g20
sg14
I1
sg29
g30
sa(dp522
g28
g11
sg21
V3
sg22
Vr
sg15
F1.2965829372406006
sg23
g27
sg19
g20
sg14
I1
sg29
g30
sa(dp523
g28
g11
sg21
V3
sg22
Vr
sg15
F1.8525991439819336
sg23
g27
sg19
g20
sg14
I1
sg29
g30
sa(dp524
g28
g11
sg21
V3
sg22
Vr
sg15
F4.8242380619049072
sg23
g27
sg19
g20
sg14
I1
sg29
g30
sa(dp525
g28
g11
sg21
V3
sg22
Vr
sg15
F1.5479540824890137
sg23
g27
sg19
g20
sg14
I1
sg29
g30
sa(dp526
g28
g11
sg21
V3
sg22
Vr
sg15
F1.6601080894470215
sg23
g27
sg19
g20
sg14
I1
sg29
g30
sa(dp527
g28
g11
sg21
V3
sg22
Vr
sg15
F1.4643261432647705
sg23
g27
sg19
g20
sg14
I1
sg29
g30
sa(dp528
g28
g11
sg21
V3
sg22
Vr
sg15
F1.4693460464477539
sg23
g27
sg19
g20
sg14
I1
sg29
g30
sa(dp529
g28
g11
sg21
V3
sg22
Vr
sg15
F2.8199820518493652
sg23
g27
sg19
g20
sg14
I1
sg29
g30
sa(dp530
g28
g11
sg21
V3
sg22
Vr
sg15
F1.5492980480194092
sg23
g27
sg19
g20
sg14
I1
sg29
g30
sa(dp531
g28
g11
sg21
V3
sg22
Vr
sg15
F2.7499680519104004
sg23
g27
sg19
g20
sg14
I0
sg29
g30
sa(dp532
g28
g11
sg21
V3
sg22
Vr
sg15
F2.6997671127319336
sg23
g27
sg19
g20
sg14
I0
sg29
g30
sa(dp533
g28
g11
sg21
V3
sg22
Vr
sg15
F3.2731828689575195
sg23
g27
sg19
g20
sg14
I1
sg29
g30
sa(dp534
g28
g11
sg21
V3
sg22
Vr
sg15
F1.8174071311950684
sg23
g27
sg19
g20
sg14
I1
sg29
g30
sa(dp535
g28
g11
sg21
V3
sg22
Vr
sg15
F3.6209390163421631
sg23
g27
sg19
g20
sg14
I1
sg29
g30
sa(dp536
g28
g11
sg21
V3
sg22
Vr
sg15
F1.582550048828125
sg23
g27
sg19
g20
sg14
I1
sg29
g30
sa(dp537
g28
g11
sg21
V3
sg22
Vr
sg15
F1.5981290340423584
sg23
g27
sg19
g20
sg14
I1
sg29
g30
sa(dp538
g28
g11
sg21
V3
sg22
Vr
sg15
F3.1253261566162109
sg23
g27
sg19
g20
sg14
I1
sg29
g30
sa(dp539
g28
g11
sg21
V3
sg22
Vr
sg15
F2.4177789688110352
sg23
g27
sg19
g20
sg14
I0
sg29
g30
sa(dp540
g28
g11
sg21
V3
sg22
Vr
sg15
F2.4023730754852295
sg23
g27
sg19
g20
sg14
I1
sg29
g30
sa(dp541
g28
g11
sg21
V3
sg22
Vr
sg15
F2.4338150024414062
sg23
g27
sg19
g20
sg14
I1
sg29
g30
sa(dp542
g28
g11
sg21
V3
sg22
Vr
sg15
F1.3805720806121826
sg23
g27
sg19
g20
sg14
I1
sg29
g30
sa(dp543
g28
g11
sg21
V3
sg22
Vr
sg15
F3.2256081104278564
sg23
g27
sg19
g20
sg14
I0
sg29
g30
sa(dp544
g28
g11
sg21
V3
sg22
Vr
sg15
F2.5513460636138916
sg23
g27
sg19
g20
sg14
I1
sg29
g30
sa(dp545
g28
g11
sg21
V3
sg22
Vr
sg15
F2.1495809555053711
sg23
g27
sg19
g20
sg14
I1
sg29
g30
sa(dp546
g28
g11
sg21
V3
sg22
Vr
sg15
F4.7045149803161621
sg23
g27
sg19
g20
sg14
I1
sg29
g30
sa(dp547
g28
g11
sg21
V3
sg22
Vr
sg15
F2.6003670692443848
sg23
g27
sg19
g20
sg14
I0
sg29
g30
sa(dp548
g28
g11
sg21
V3
sg22
Vr
sg15
F2.3846309185028076
sg23
g27
sg19
g20
sg14
I1
sg29
g30
sa(dp549
g28
g11
sg21
V3
sg22
Vr
sg15
F1.8319540023803711
sg23
g27
sg19
g20
sg14
I1
sg29
g30
sa(dp550
g28
g11
sg21
V3
sg22
Vr
sg15
F2.7850050926208496
sg23
g27
sg19
g20
sg14
I1
sg29
g30
sa(dp551
g28
g11
sg21
V3
sg22
Vr
sg15
F2.1658828258514404
sg23
g27
sg19
g20
sg14
I0
sg29
g30
sa(dp552
g28
g11
sg21
V3
sg22
Vr
sg15
F2.0994589328765869
sg23
g27
sg19
g20
sg14
I1
sg29
g30
sa(dp553
g28
g11
sg21
V3
sg22
Vr
sg15
F3.2006678581237793
sg23
g27
sg19
g20
sg14
I1
sg29
g30
sa(dp554
g28
g11
sg21
V3
sg22
Vr
sg15
F3.4270930290222168
sg23
g27
sg19
g20
sg14
I0
sg29
g30
sa(dp555
g28
g11
sg21
V3
sg22
Vr
sg15
F2.2835798263549805
sg23
g27
sg19
g20
sg14
I0
sg29
g30
sa(dp556
g28
g11
sg21
V3
sg22
Vr
sg15
F1.6642940044403076
sg23
g27
sg19
g20
sg14
I1
sg29
g30
sa(dp557
g28
g11
sg21
V3
sg22
Vr
sg15
F4.4367141723632812
sg23
g27
sg19
g20
sg14
I1
sg29
g30
sa(dp558
g28
g11
sg21
V3
sg22
Vr
sg15
F3.069800853729248
sg23
g27
sg19
g20
sg14
I0
sg29
g30
sa(dp559
g28
g11
sg21
V3
sg22
Vr
sg15
F1.4536969661712646
sg23
g27
sg19
g20
sg14
I1
sg29
g30
sa(dp560
g28
g11
sg21
V3
sg22
Vr
sg15
F3.8063561916351318
sg23
g27
sg19
g20
sg14
I1
sg29
g30
sa(dp561
g28
g11
sg21
V3
sg22
Vr
sg15
F2.4516639709472656
sg23
g27
sg19
g20
sg14
I1
sg29
g30
sa(dp562
g28
g11
sg21
V3
sg22
Vr
sg15
F1.5669319629669189
sg23
g27
sg19
g20
sg14
I1
sg29
g30
sa(dp563
g28
g11
sg21
V3
sg22
Vr
sg15
F2.4519948959350586
sg23
g27
sg19
g20
sg14
I1
sg29
g30
sa(dp564
g28
g11
sg21
V3
sg22
Vr
sg15
F2.6397829055786133
sg23
g27
sg19
g20
sg14
I1
sg29
g30
sa(dp565
g28
g11
sg21
V3
sg22
Vr
sg15
F1.420280933380127
sg23
g27
sg19
g20
sg14
I1
sg29
g30
sa(dp566
g28
g11
sg21
V3
sg22
Vr
sg15
F2.7856829166412354
sg23
g27
sg19
g20
sg14
I1
sg29
g30
sa(dp567
g28
g11
sg21
V3
sg22
Vr
sg15
F2.3969838619232178
sg23
g27
sg19
g20
sg14
I0
sg29
g30
sa(dp568
g28
g11
sg21
V3
sg22
Vr
sg15
F1.582535982131958
sg23
g27
sg19
g20
sg14
I1
sg29
g30
sa(dp569
g28
g11
sg21
V3
sg22
Vr
sg15
F1.5646519660949707
sg23
g27
sg19
g20
sg14
I1
sg29
g30
sa(dp570
g28
g11
sg21
V3
sg22
Vr
sg15
F1.8238978385925293
sg23
g27
sg19
g20
sg14
I1
sg29
g30
sa(dp571
g28
g11
sg21
V3
sg22
Vr
sg15
F1.5536541938781738
sg23
g27
sg19
g20
sg14
I1
sg29
g30
sa(dp572
g28
g11
sg21
V3
sg22
Vr
sg15
F4.8875491619110107
sg23
g27
sg19
g20
sg14
I1
sg29
g30
sa(dp573
g28
g11
sg21
V3
sg22
Vr
sg15
F4.3020260334014893
sg23
g27
sg19
g20
sg14
I1
sg29
g30
sa(dp574
g28
g11
sg21
V3
sg22
Vr
sg15
F2.4129290580749512
sg23
g27
sg19
g20
sg14
I1
sg29
g30
sa(dp575
g28
g11
sg21
V3
sg22
Vr
sg15
F1.5830039978027344
sg23
g27
sg19
g20
sg14
I1
sg29
g30
sa(dp576
g28
g11
sg21
V3
sg22
Vr
sg15
F1.5152299404144287
sg23
g27
sg19
g20
sg14
I1
sg29
g30
sa(dp577
g28
g11
sg21
V3
sg22
Vr
sg15
F3.2310128211975098
sg23
g27
sg19
g20
sg14
I0
sg29
g30
sa(dp578
g28
g11
sg21
V3
sg22
Vr
sg15
F2.6164941787719727
sg23
g27
sg19
g20
sg14
I0
sg29
g30
sa(dp579
g28
g11
sg21
V3
sg22
Vr
sg15
F1.4824991226196289
sg23
g27
sg19
g20
sg14
I1
sg29
g30
sa(dp580
g28
g11
sg21
V3
sg22
Vr
sg15
F1.7077739238739014
sg23
g27
sg19
g20
sg14
I1
sg29
g30
sa(dp581
g28
g11
sg21
V3
sg22
Vr
sg15
F2.035085916519165
sg23
g27
sg19
g20
sg14
I0
sg29
g30
sa(dp582
g28
g11
sg21
V3
sg22
Vr
sg15
F2.1179730892181396
sg23
g27
sg19
g20
sg14
I0
sg29
g30
sa(dp583
g28
g11
sg21
V3
sg22
Vr
sg15
F2.967930793762207
sg23
g27
sg19
g20
sg14
I0
sg29
g30
sa(dp584
g28
g11
sg21
V3
sg22
Vr
sg15
F2.6005039215087891
sg23
g27
sg19
g20
sg14
I1
sg29
g30
sa(dp585
g28
g11
sg21
V3
sg22
Vr
sg15
F3.2677409648895264
sg23
g27
sg19
g20
sg14
I0
sg29
g30
sa(dp586
g28
g11
sg21
V3
sg22
Vr
sg15
F2.5155777931213379
sg23
g27
sg19
g20
sg14
I1
sg29
g30
sa(dp587
g28
g11
sg21
V3
sg22
Vr
sg15
F3.5347590446472168
sg23
g27
sg19
g20
sg14
I1
sg29
g30
sa(dp588
g28
g11
sg21
V3
sg22
Vr
sg15
F2.502032995223999
sg23
g27
sg19
g20
sg14
I1
sg29
g30
sa(dp589
g28
g11
sg21
V3
sg22
Vr
sg15
F3.1166801452636719
sg23
g27
sg19
g20
sg14
I0
sg29
g30
sa(dp590
g28
g11
sg21
V3
sg22
Vr
sg15
F2.6186659336090088
sg23
g27
sg19
g20
sg14
I1
sg29
g30
sa(dp591
g28
g11
sg21
V3
sg22
Vr
sg15
F1.8682661056518555
sg23
g27
sg19
g20
sg14
I1
sg29
g30
sa(dp592
g28
g11
sg21
V3
sg22
Vr
sg15
F2.8905148506164551
sg23
g27
sg19
g20
sg14
I0
sg29
g30
sa(dp593
g28
g11
sg21
V3
sg22
Vr
sg15
F2.9176840782165527
sg23
g27
sg19
g20
sg14
I0
sg29
g30
sa(dp594
g28
g11
sg21
V3
sg22
Vr
sg15
F1.7170350551605225
sg23
g27
sg19
g20
sg14
I1
sg29
g30
sa(dp595
g28
g11
sg21
V3
sg22
Vr
sg15
F3.914146900177002
sg23
g27
sg19
g20
sg14
I1
sg29
g30
sa(dp596
g28
g11
sg21
V3
sg22
Vr
sg15
F1.6821820735931396
sg23
g27
sg19
g20
sg14
I1
sg29
g30
sa(dp597
g28
g11
sg21
V3
sg22
Vr
sg15
F2.1350069046020508
sg23
g27
sg19
g20
sg14
I1
sg29
g30
sa(dp598
g28
g11
sg21
V3
sg22
Vr
sg15
F1.4982118606567383
sg23
g27
sg19
g20
sg14
I1
sg29
g30
sa(dp599
g28
g11
sg21
V3
sg22
Vr
sg15
F1.4659159183502197
sg23
g27
sg19
g20
sg14
I1
sg29
g30
sa(dp600
g28
g11
sg21
V3
sg22
Vr
sg15
F2.7794249057769775
sg23
g27
sg19
g20
sg14
I0
sg29
g30
sa(dp601
g28
g11
sg21
V3
sg22
Vr
sg15
F1.5309648513793945
sg23
g27
sg19
g20
sg14
I1
sg29
g30
sa(dp602
g28
g11
sg21
V3
sg22
Vr
sg15
F2.3165090084075928
sg23
g27
sg19
g20
sg14
I1
sg29
g30
sa(dp603
g28
g11
sg21
V3
sg22
Vr
sg15
F2.2543489933013916
sg23
g27
sg19
g20
sg14
I1
sg29
g30
sa(dp604
g28
g11
sg21
V3
sg22
Vr
sg15
F2.5522768497467041
sg23
g27
sg19
g20
sg14
I1
sg29
g30
sa(dp605
g28
g11
sg21
V3
sg22
Vr
sg15
F2.3661749362945557
sg23
g27
sg19
g20
sg14
I0
sg29
g30
sa(dp606
g28
g11
sg21
V3
sg22
Vr
sg15
F2.7669739723205566
sg23
g27
sg19
g20
sg14
I1
sg29
g30
sa(dp607
g28
g11
sg21
V3
sg22
Vr
sg15
F1.6394720077514648
sg23
g27
sg19
g20
sg14
I1
sg29
g30
sa(dp608
g28
g11
sg21
V3
sg22
Vr
sg15
F1.8826370239257812
sg23
g27
sg19
g20
sg14
I1
sg29
g30
sa(dp609
g28
g11
sg21
V3
sg22
Vr
sg15
F0.91891598701477051
sg23
g27
sg19
g20
sg14
I1
sg29
g30
sa(dp610
g28
g11
sg21
V3
sg22
Vr
sg15
F1.1656789779663086
sg23
g27
sg19
g20
sg14
I1
sg29
g30
sa(dp611
g28
g11
sg21
V3
sg22
Vr
sg15
F1.4319941997528076
sg23
g27
sg19
g20
sg14
I1
sg29
g30
sa(dp612
g28
g11
sg21
V3
sg22
Vr
sg15
F1.5157098770141602
sg23
g27
sg19
g20
sg14
I1
sg29
g30
sa(dp613
g28
g11
sg21
V3
sg22
Vr
sg15
F2.1494238376617432
sg23
g27
sg19
g20
sg14
I1
sg29
g30
sa(dp614
g28
g11
sg21
V3
sg22
Vr
sg15
F1.0815219879150391
sg23
g27
sg19
g20
sg14
I1
sg29
g30
sa(dp615
g28
g11
sg21
V3
sg22
Vr
sg15
F1.4203939437866211
sg23
g27
sg19
g20
sg14
I1
sg29
g30
sa(dp616
g28
g11
sg21
V3
sg22
Vr
sg15
F2.050806999206543
sg23
g27
sg19
g20
sg14
I1
sg29
g30
sa(dp617
g28
g11
sg21
V3
sg22
Vr
sg15
F1.0307919979095459
sg23
g27
sg19
g20
sg14
I1
sg29
g30
sa(dp618
g28
g11
sg21
V3
sg22
Vr
sg15
F1.9669489860534668
sg23
g27
sg19
g20
sg14
I1
sg29
g30
sa(dp619
g28
g11
sg21
V3
sg22
Vr
sg15
F1.6988949775695801
sg23
g27
sg19
g20
sg14
I1
sg29
g30
sa(dp620
g28
g11
sg21
V3
sg22
Vr
sg15
F0.96545195579528809
sg23
g27
sg19
g20
sg14
I1
sg29
g30
sa(dp621
g28
g11
sg21
V3
sg22
Vr
sg15
F2.2053239345550537
sg23
g27
sg19
g20
sg14
I1
sg29
g30
sa(dp622
g28
g11
sg21
V3
sg22
Vr
sg15
F1.7039029598236084
sg23
g27
sg19
g20
sg14
I1
sg29
g30
sa(dp623
g28
g11
sg21
V3
sg22
Vr
sg15
F1.6857409477233887
sg23
g27
sg19
g20
sg14
I1
sg29
g30
sa(dp624
g28
g11
sg21
V3
sg22
Vr
sg15
F2.0659890174865723
sg23
g27
sg19
g20
sg14
I1
sg29
g30
sa(dp625
g28
g11
sg21
V3
sg22
Vr
sg15
F1.4316298961639404
sg23
g27
sg19
g20
sg14
I1
sg29
g30
sa(dp626
g28
g11
sg21
V3
sg22
Vr
sg15
F1.048429012298584
sg23
g27
sg19
g20
sg14
I1
sg29
g30
sa(dp627
g28
g11
sg21
V3
sg22
Vr
sg15
F3.0349340438842773
sg23
g27
sg19
g20
sg14
I0
sg29
g30
sa(dp628
g28
g11
sg21
V3
sg22
Vr
sg15
F4.2210869789123535
sg23
g27
sg19
g20
sg14
I1
sg29
g30
sa(dp629
g28
g11
sg21
V3
sg22
Vr
sg15
F1.4804830551147461
sg23
g27
sg19
g20
sg14
I1
sg29
g30
sa(dp630
g28
g11
sg21
V3
sg22
Vr
sg15
F1.3982491493225098
sg23
g27
sg19
g20
sg14
I1
sg29
g30
sa(dp631
g28
g11
sg21
V3
sg22
Vr
sg15
F2.4500420093536377
sg23
g27
sg19
g20
sg14
I1
sg29
g30
sa(dp632
g28
g11
sg21
V3
sg22
Vr
sg15
F2.8409287929534912
sg23
g27
sg19
g20
sg14
I0
sg29
g30
sa(dp633
g28
g11
sg21
V3
sg22
Vr
sg15
F2.0226180553436279
sg23
g27
sg19
g20
sg14
I1
sg29
g30
sa(dp634
g28
g11
sg21
V3
sg22
Vr
sg15
F3.5840358734130859
sg23
g27
sg19
g20
sg14
I0
sg29
g30
sa(dp635
g28
g11
sg21
V3
sg22
Vr
sg15
F1.382896900177002
sg23
g27
sg19
g20
sg14
I1
sg29
g30
sa(dp636
g28
g11
sg21
V3
sg22
Vr
sg15
F2.4153962135314941
sg23
g27
sg19
g20
sg14
I1
sg29
g30
sa(dp637
g28
g11
sg21
V3
sg22
Vr
sg15
F1.439262866973877
sg23
g27
sg19
g20
sg14
I1
sg29
g30
sa(dp638
g28
g11
sg21
V3
sg22
Vr
sg15
F1.4138760566711426
sg23
g27
sg19
g20
sg14
I1
sg29
g30
sa(dp639
g28
g11
sg21
V3
sg22
Vr
sg15
F1.5860319137573242
sg23
g27
sg19
g20
sg14
I1
sg29
g30
sa(dp640
g28
g11
sg21
V3
sg22
Vr
sg15
F3.6651239395141602
sg23
g27
sg19
g20
sg14
I1
sg29
g30
sasS'loops'
p641
(lp642
sS'savePickle'
p643
I00
sb.