ccopy_reg
_reconstructor
p1
(cpsychopy.data
ExperimentHandler
p2
c__builtin__
object
p3
NtRp4
(dp5
S'originPath'
p6
NsS'dataFileName'
p7
V/Users/egor/Dropbox/projects/supr-eff/supreff/data/supreff__r_01_2015_Apr_03_1702
p8
sS'runtimeInfo'
p9
NsS'name'
p10
S'supreff'
p11
sS'dataNames'
p12
(lp13
S'.response'
p14
aS'key_upDown.rt'
p15
asS'autoLog'
p16
I01
sS'extraInfo'
p17
(dp18
Vsession
p19
V01
p20
sVparticipant
p21
V
sVdomEye
p22
Vr
sS'frameRate'
p23
cnumpy.core.multiarray
scalar
p24
(cnumpy
dtype
p25
(S'f8'
I0
I1
tRp26
(I3
S'<'
NNNI-1
I-1
I0
tbS'mH\xa8\xe6^\xfeM@'
tRp27
sS'expName'
p28
g11
sS'date'
p29
V2015_Apr_03_1702
p30
ssS'loopsUnfinished'
p31
(lp32
sS'saveWideText'
p33
I01
sS'thisEntry'
p34
(dp35
sS'version'
p36
S''
sS'_paramNamesSoFar'
p37
(lp38
sS'entries'
p39
(lp40
(dp41
g28
g11
sg21
V
sg22
Vr
sg15
F4.0813870429992676
sg23
g27
sg19
g20
sg14
I1
sg29
g30
sa(dp42
g28
g11
sg21
V
sg22
Vr
sg15
F6.5137979984283447
sg23
g27
sg19
g20
sg14
I0
sg29
g30
sa(dp43
g28
g11
sg21
V
sg22
Vr
sg15
F1.121549129486084
sg23
g27
sg19
g20
sg14
I1
sg29
g30
sa(dp44
g28
g11
sg21
V
sg22
Vr
sg15
F2.0212841033935547
sg23
g27
sg19
g20
sg14
I1
sg29
g30
sa(dp45
g28
g11
sg21
V
sg22
Vr
sg15
F2.4224672317504883
sg23
g27
sg19
g20
sg14
I1
sg29
g30
sa(dp46
g28
g11
sg21
V
sg22
Vr
sg15
F0.73720097541809082
sg23
g27
sg19
g20
sg14
I1
sg29
g30
sa(dp47
g28
g11
sg21
V
sg22
Vr
sg15
F0.79201412200927734
sg23
g27
sg19
g20
sg14
I1
sg29
g30
sa(dp48
g28
g11
sg21
V
sg22
Vr
sg15
F0.87243318557739258
sg23
g27
sg19
g20
sg14
I1
sg29
g30
sa(dp49
g28
g11
sg21
V
sg22
Vr
sg15
F1.3398962020874023
sg23
g27
sg19
g20
sg14
I1
sg29
g30
sa(dp50
g28
g11
sg21
V
sg22
Vr
sg15
F2.552386999130249
sg23
g27
sg19
g20
sg14
I1
sg29
g30
sa(dp51
g28
g11
sg21
V
sg22
Vr
sg15
F0.78325414657592773
sg23
g27
sg19
g20
sg14
I1
sg29
g30
sa(dp52
g28
g11
sg21
V
sg22
Vr
sg15
F1.3196060657501221
sg23
g27
sg19
g20
sg14
I1
sg29
g30
sa(dp53
g28
g11
sg21
V
sg22
Vr
sg15
F0.7502129077911377
sg23
g27
sg19
g20
sg14
I1
sg29
g30
sa(dp54
g28
g11
sg21
V
sg22
Vr
sg15
F0.80457711219787598
sg23
g27
sg19
g20
sg14
I1
sg29
g30
sa(dp55
g28
g11
sg21
V
sg22
Vr
sg15
F1.2191030979156494
sg23
g27
sg19
g20
sg14
I1
sg29
g30
sa(dp56
g28
g11
sg21
V
sg22
Vr
sg15
F5.5472140312194824
sg23
g27
sg19
g20
sg14
I1
sg29
g30
sa(dp57
g28
g11
sg21
V
sg22
Vr
sg15
F3.1066980361938477
sg23
g27
sg19
g20
sg14
I1
sg29
g30
sa(dp58
g28
g11
sg21
V
sg22
Vr
sg15
F1.0205180644989014
sg23
g27
sg19
g20
sg14
I1
sg29
g30
sa(dp59
g28
g11
sg21
V
sg22
Vr
sg15
F0.82077217102050781
sg23
g27
sg19
g20
sg14
I1
sg29
g30
sa(dp60
g28
g11
sg21
V
sg22
Vr
sg15
F0.86591506004333496
sg23
g27
sg19
g20
sg14
I1
sg29
g30
sa(dp61
g28
g11
sg21
V
sg22
Vr
sg15
F0.71359896659851074
sg23
g27
sg19
g20
sg14
I1
sg29
g30
sa(dp62
g28
g11
sg21
V
sg22
Vr
sg15
F0.70266819000244141
sg23
g27
sg19
g20
sg14
I1
sg29
g30
sa(dp63
g28
g11
sg21
V
sg22
Vr
sg15
F2.977977991104126
sg23
g27
sg19
g20
sg14
I0
sg29
g30
sa(dp64
g28
g11
sg21
V
sg22
Vr
sg15
F0.82369399070739746
sg23
g27
sg19
g20
sg14
I1
sg29
g30
sa(dp65
g28
g11
sg21
V
sg22
Vr
sg15
F0.87178707122802734
sg23
g27
sg19
g20
sg14
I1
sg29
g30
sa(dp66
g28
g11
sg21
V
sg22
Vr
sg15
F0.60204100608825684
sg23
g27
sg19
g20
sg14
I1
sg29
g30
sa(dp67
g28
g11
sg21
V
sg22
Vr
sg15
F0.75396585464477539
sg23
g27
sg19
g20
sg14
I1
sg29
g30
sa(dp68
g28
g11
sg21
V
sg22
Vr
sg15
F3.5261039733886719
sg23
g27
sg19
g20
sg14
I1
sg29
g30
sa(dp69
g28
g11
sg21
V
sg22
Vr
sg15
F1.442903995513916
sg23
g27
sg19
g20
sg14
I0
sg29
g30
sa(dp70
g28
g11
sg21
V
sg22
Vr
sg15
F0.90203380584716797
sg23
g27
sg19
g20
sg14
I1
sg29
g30
sa(dp71
g28
g11
sg21
V
sg22
Vr
sg15
F0.60062408447265625
sg23
g27
sg19
g20
sg14
I1
sg29
g30
sa(dp72
g28
g11
sg21
V
sg22
Vr
sg15
F1.7070071697235107
sg23
g27
sg19
g20
sg14
I1
sg29
g30
sa(dp73
g28
g11
sg21
V
sg22
Vr
sg15
F3.1918449401855469
sg23
g27
sg19
g20
sg14
I0
sg29
g30
sa(dp74
g28
g11
sg21
V
sg22
Vr
sg15
F2.5711719989776611
sg23
g27
sg19
g20
sg14
I0
sg29
g30
sa(dp75
g28
g11
sg21
V
sg22
Vr
sg15
F0.68535113334655762
sg23
g27
sg19
g20
sg14
I0
sg29
g30
sa(dp76
g28
g11
sg21
V
sg22
Vr
sg15
F0.73287391662597656
sg23
g27
sg19
g20
sg14
I1
sg29
g30
sa(dp77
g28
g11
sg21
V
sg22
Vr
sg15
F4.755634069442749
sg23
g27
sg19
g20
sg14
I0
sg29
g30
sa(dp78
g28
g11
sg21
V
sg22
Vr
sg15
F6.0482361316680908
sg23
g27
sg19
g20
sg14
I1
sg29
g30
sa(dp79
g28
g11
sg21
V
sg22
Vr
sg15
F0.80059599876403809
sg23
g27
sg19
g20
sg14
I1
sg29
g30
sa(dp80
g28
g11
sg21
V
sg22
Vr
sg15
F5.6056580543518066
sg23
g27
sg19
g20
sg14
I0
sg29
g30
sa(dp81
g28
g11
sg21
V
sg22
Vr
sg15
F0.7209627628326416
sg23
g27
sg19
g20
sg14
I1
sg29
g30
sa(dp82
g28
g11
sg21
V
sg22
Vr
sg15
F0.82131481170654297
sg23
g27
sg19
g20
sg14
I1
sg29
g30
sa(dp83
g28
g11
sg21
V
sg22
Vr
sg15
F0.70275497436523438
sg23
g27
sg19
g20
sg14
I1
sg29
g30
sa(dp84
g28
g11
sg21
V
sg22
Vr
sg15
F0.66923213005065918
sg23
g27
sg19
g20
sg14
I1
sg29
g30
sa(dp85
g28
g11
sg21
V
sg22
Vr
sg15
F0.71570611000061035
sg23
g27
sg19
g20
sg14
I1
sg29
g30
sa(dp86
g28
g11
sg21
V
sg22
Vr
sg15
F0.70285415649414062
sg23
g27
sg19
g20
sg14
I1
sg29
g30
sa(dp87
g28
g11
sg21
V
sg22
Vr
sg15
F0.61853718757629395
sg23
g27
sg19
g20
sg14
I1
sg29
g30
sa(dp88
g28
g11
sg21
V
sg22
Vr
sg15
F0.60194206237792969
sg23
g27
sg19
g20
sg14
I1
sg29
g30
sa(dp89
g28
g11
sg21
V
sg22
Vr
sg15
F0.80230283737182617
sg23
g27
sg19
g20
sg14
I1
sg29
g30
sa(dp90
g28
g11
sg21
V
sg22
Vr
sg15
F0.8678131103515625
sg23
g27
sg19
g20
sg14
I1
sg29
g30
sa(dp91
g28
g11
sg21
V
sg22
Vr
sg15
F2.6803209781646729
sg23
g27
sg19
g20
sg14
I0
sg29
g30
sa(dp92
g28
g11
sg21
V
sg22
Vr
sg15
F0.69242596626281738
sg23
g27
sg19
g20
sg14
I1
sg29
g30
sa(dp93
g28
g11
sg21
V
sg22
Vr
sg15
F1.0578489303588867
sg23
g27
sg19
g20
sg14
I1
sg29
g30
sa(dp94
g28
g11
sg21
V
sg22
Vr
sg15
F3.2912218570709229
sg23
g27
sg19
g20
sg14
I1
sg29
g30
sa(dp95
g28
g11
sg21
V
sg22
Vr
sg15
F0.68416094779968262
sg23
g27
sg19
g20
sg14
I1
sg29
g30
sa(dp96
g28
g11
sg21
V
sg22
Vr
sg15
F0.7149658203125
sg23
g27
sg19
g20
sg14
I1
sg29
g30
sa(dp97
g28
g11
sg21
V
sg22
Vr
sg15
F0.68382811546325684
sg23
g27
sg19
g20
sg14
I1
sg29
g30
sa(dp98
g28
g11
sg21
V
sg22
Vr
sg15
F0.61866211891174316
sg23
g27
sg19
g20
sg14
I1
sg29
g30
sa(dp99
g28
g11
sg21
V
sg22
Vr
sg15
F0.75135397911071777
sg23
g27
sg19
g20
sg14
I1
sg29
g30
sa(dp100
g28
g11
sg21
V
sg22
Vr
sg15
F2.4319989681243896
sg23
g27
sg19
g20
sg14
I0
sg29
g30
sa(dp101
g28
g11
sg21
V
sg22
Vr
sg15
F0.75146389007568359
sg23
g27
sg19
g20
sg14
I1
sg29
g30
sa(dp102
g28
g11
sg21
V
sg22
Vr
sg15
F2.4411439895629883
sg23
g27
sg19
g20
sg14
I1
sg29
g30
sa(dp103
g28
g11
sg21
V
sg22
Vr
sg15
F0.88797688484191895
sg23
g27
sg19
g20
sg14
I1
sg29
g30
sa(dp104
g28
g11
sg21
V
sg22
Vr
sg15
F0.66698002815246582
sg23
g27
sg19
g20
sg14
I1
sg29
g30
sa(dp105
g28
g11
sg21
V
sg22
Vr
sg15
F0.61792397499084473
sg23
g27
sg19
g20
sg14
I1
sg29
g30
sa(dp106
g28
g11
sg21
V
sg22
Vr
sg15
F0.59943389892578125
sg23
g27
sg19
g20
sg14
I1
sg29
g30
sa(dp107
g28
g11
sg21
V
sg22
Vr
sg15
F2.8442451953887939
sg23
g27
sg19
g20
sg14
I1
sg29
g30
sa(dp108
g28
g11
sg21
V
sg22
Vr
sg15
F0.73110604286193848
sg23
g27
sg19
g20
sg14
I1
sg29
g30
sa(dp109
g28
g11
sg21
V
sg22
Vr
sg15
F2.9349880218505859
sg23
g27
sg19
g20
sg14
I1
sg29
g30
sa(dp110
g28
g11
sg21
V
sg22
Vr
sg15
F0.64246177673339844
sg23
g27
sg19
g20
sg14
I1
sg29
g30
sa(dp111
g28
g11
sg21
V
sg22
Vr
sg15
F0.7576451301574707
sg23
g27
sg19
g20
sg14
I1
sg29
g30
sa(dp112
g28
g11
sg21
V
sg22
Vr
sg15
F4.8927710056304932
sg23
g27
sg19
g20
sg14
I1
sg29
g30
sa(dp113
g28
g11
sg21
V
sg22
Vr
sg15
F3.1021528244018555
sg23
g27
sg19
g20
sg14
I0
sg29
g30
sa(dp114
g28
g11
sg21
V
sg22
Vr
sg15
F2.6248059272766113
sg23
g27
sg19
g20
sg14
I1
sg29
g30
sa(dp115
g28
g11
sg21
V
sg22
Vr
sg15
F1.5373919010162354
sg23
g27
sg19
g20
sg14
I0
sg29
g30
sa(dp116
g28
g11
sg21
V
sg22
Vr
sg15
F4.7791998386383057
sg23
g27
sg19
g20
sg14
I0
sg29
g30
sa(dp117
g28
g11
sg21
V
sg22
Vr
sg15
F2.7887439727783203
sg23
g27
sg19
g20
sg14
I0
sg29
g30
sa(dp118
g28
g11
sg21
V
sg22
Vr
sg15
F2.8203458786010742
sg23
g27
sg19
g20
sg14
I1
sg29
g30
sa(dp119
g28
g11
sg21
V
sg22
Vr
sg15
F0.71453094482421875
sg23
g27
sg19
g20
sg14
I1
sg29
g30
sa(dp120
g28
g11
sg21
V
sg22
Vr
sg15
F3.5315859317779541
sg23
g27
sg19
g20
sg14
I1
sg29
g30
sa(dp121
g28
g11
sg21
V
sg22
Vr
sg15
F0.68968296051025391
sg23
g27
sg19
g20
sg14
I1
sg29
g30
sa(dp122
g28
g11
sg21
V
sg22
Vr
sg15
F0.7069849967956543
sg23
g27
sg19
g20
sg14
I1
sg29
g30
sa(dp123
g28
g11
sg21
V
sg22
Vr
sg15
F2.6218340396881104
sg23
g27
sg19
g20
sg14
I0
sg29
g30
sa(dp124
g28
g11
sg21
V
sg22
Vr
sg15
F3.3584661483764648
sg23
g27
sg19
g20
sg14
I0
sg29
g30
sa(dp125
g28
g11
sg21
V
sg22
Vr
sg15
F0.90176916122436523
sg23
g27
sg19
g20
sg14
I1
sg29
g30
sa(dp126
g28
g11
sg21
V
sg22
Vr
sg15
F0.96025991439819336
sg23
g27
sg19
g20
sg14
I1
sg29
g30
sa(dp127
g28
g11
sg21
V
sg22
Vr
sg15
F0.85750293731689453
sg23
g27
sg19
g20
sg14
I1
sg29
g30
sa(dp128
g28
g11
sg21
V
sg22
Vr
sg15
F0.65384602546691895
sg23
g27
sg19
g20
sg14
I1
sg29
g30
sa(dp129
g28
g11
sg21
V
sg22
Vr
sg15
F6.1969168186187744
sg23
g27
sg19
g20
sg14
I1
sg29
g30
sa(dp130
g28
g11
sg21
V
sg22
Vr
sg15
F0.85410809516906738
sg23
g27
sg19
g20
sg14
I1
sg29
g30
sa(dp131
g28
g11
sg21
V
sg22
Vr
sg15
F5.0189480781555176
sg23
g27
sg19
g20
sg14
I1
sg29
g30
sa(dp132
g28
g11
sg21
V
sg22
Vr
sg15
F0.69243693351745605
sg23
g27
sg19
g20
sg14
I1
sg29
g30
sa(dp133
g28
g11
sg21
V
sg22
Vr
sg15
F4.5731348991394043
sg23
g27
sg19
g20
sg14
I1
sg29
g30
sa(dp134
g28
g11
sg21
V
sg22
Vr
sg15
F1.0029189586639404
sg23
g27
sg19
g20
sg14
I0
sg29
g30
sa(dp135
g28
g11
sg21
V
sg22
Vr
sg15
F3.541032075881958
sg23
g27
sg19
g20
sg14
I1
sg29
g30
sa(dp136
g28
g11
sg21
V
sg22
Vr
sg15
F0.95460605621337891
sg23
g27
sg19
g20
sg14
I1
sg29
g30
sa(dp137
g28
g11
sg21
V
sg22
Vr
sg15
F4.20707106590271
sg23
g27
sg19
g20
sg14
I1
sg29
g30
sa(dp138
g28
g11
sg21
V
sg22
Vr
sg15
F0.7036900520324707
sg23
g27
sg19
g20
sg14
I1
sg29
g30
sa(dp139
g28
g11
sg21
V
sg22
Vr
sg15
F0.6035468578338623
sg23
g27
sg19
g20
sg14
I1
sg29
g30
sa(dp140
g28
g11
sg21
V
sg22
Vr
sg15
F0.82494115829467773
sg23
g27
sg19
g20
sg14
I1
sg29
g30
sa(dp141
g28
g11
sg21
V
sg22
Vr
sg15
F0.62123394012451172
sg23
g27
sg19
g20
sg14
I1
sg29
g30
sa(dp142
g28
g11
sg21
V
sg22
Vr
sg15
F0.58947181701660156
sg23
g27
sg19
g20
sg14
I1
sg29
g30
sa(dp143
g28
g11
sg21
V
sg22
Vr
sg15
F3.0080502033233643
sg23
g27
sg19
g20
sg14
I1
sg29
g30
sa(dp144
g28
g11
sg21
V
sg22
Vr
sg15
F2.2864530086517334
sg23
g27
sg19
g20
sg14
I1
sg29
g30
sa(dp145
g28
g11
sg21
V
sg22
Vr
sg15
F2.9498300552368164
sg23
g27
sg19
g20
sg14
I1
sg29
g30
sa(dp146
g28
g11
sg21
V
sg22
Vr
sg15
F2.9561500549316406
sg23
g27
sg19
g20
sg14
I1
sg29
g30
sa(dp147
g28
g11
sg21
V
sg22
Vr
sg15
F0.65917181968688965
sg23
g27
sg19
g20
sg14
I1
sg29
g30
sa(dp148
g28
g11
sg21
V
sg22
Vr
sg15
F0.95733785629272461
sg23
g27
sg19
g20
sg14
I1
sg29
g30
sa(dp149
g28
g11
sg21
V
sg22
Vr
sg15
F0.86897993087768555
sg23
g27
sg19
g20
sg14
I1
sg29
g30
sa(dp150
g28
g11
sg21
V
sg22
Vr
sg15
F0.80398797988891602
sg23
g27
sg19
g20
sg14
I1
sg29
g30
sa(dp151
g28
g11
sg21
V
sg22
Vr
sg15
F0.65095210075378418
sg23
g27
sg19
g20
sg14
I1
sg29
g30
sa(dp152
g28
g11
sg21
V
sg22
Vr
sg15
F0.61946892738342285
sg23
g27
sg19
g20
sg14
I1
sg29
g30
sa(dp153
g28
g11
sg21
V
sg22
Vr
sg15
F0.59111618995666504
sg23
g27
sg19
g20
sg14
I1
sg29
g30
sa(dp154
g28
g11
sg21
V
sg22
Vr
sg15
F0.73650598526000977
sg23
g27
sg19
g20
sg14
I1
sg29
g30
sa(dp155
g28
g11
sg21
V
sg22
Vr
sg15
F1.0569100379943848
sg23
g27
sg19
g20
sg14
I1
sg29
g30
sa(dp156
g28
g11
sg21
V
sg22
Vr
sg15
F0.75900411605834961
sg23
g27
sg19
g20
sg14
I1
sg29
g30
sa(dp157
g28
g11
sg21
V
sg22
Vr
sg15
F0.81817197799682617
sg23
g27
sg19
g20
sg14
I1
sg29
g30
sa(dp158
g28
g11
sg21
V
sg22
Vr
sg15
F2.0250349044799805
sg23
g27
sg19
g20
sg14
I1
sg29
g30
sa(dp159
g28
g11
sg21
V
sg22
Vr
sg15
F3.9459540843963623
sg23
g27
sg19
g20
sg14
I1
sg29
g30
sa(dp160
g28
g11
sg21
V
sg22
Vr
sg15
F0.87009811401367188
sg23
g27
sg19
g20
sg14
I1
sg29
g30
sa(dp161
g28
g11
sg21
V
sg22
Vr
sg15
F4.0547361373901367
sg23
g27
sg19
g20
sg14
I1
sg29
g30
sa(dp162
g28
g11
sg21
V
sg22
Vr
sg15
F0.75288891792297363
sg23
g27
sg19
g20
sg14
I1
sg29
g30
sa(dp163
g28
g11
sg21
V
sg22
Vr
sg15
F3.2641811370849609
sg23
g27
sg19
g20
sg14
I0
sg29
g30
sa(dp164
g28
g11
sg21
V
sg22
Vr
sg15
F0.62254500389099121
sg23
g27
sg19
g20
sg14
I1
sg29
g30
sa(dp165
g28
g11
sg21
V
sg22
Vr
sg15
F1.0055508613586426
sg23
g27
sg19
g20
sg14
I1
sg29
g30
sa(dp166
g28
g11
sg21
V
sg22
Vr
sg15
F3.0532939434051514
sg23
g27
sg19
g20
sg14
I0
sg29
g30
sa(dp167
g28
g11
sg21
V
sg22
Vr
sg15
F3.188809871673584
sg23
g27
sg19
g20
sg14
I1
sg29
g30
sa(dp168
g28
g11
sg21
V
sg22
Vr
sg15
F1.5875611305236816
sg23
g27
sg19
g20
sg14
I0
sg29
g30
sa(dp169
g28
g11
sg21
V
sg22
Vr
sg15
F2.1651980876922607
sg23
g27
sg19
g20
sg14
I0
sg29
g30
sa(dp170
g28
g11
sg21
V
sg22
Vr
sg15
F0.81783199310302734
sg23
g27
sg19
g20
sg14
I1
sg29
g30
sa(dp171
g28
g11
sg21
V
sg22
Vr
sg15
F2.7700290679931641
sg23
g27
sg19
g20
sg14
I1
sg29
g30
sa(dp172
g28
g11
sg21
V
sg22
Vr
sg15
F2.0504581928253174
sg23
g27
sg19
g20
sg14
I0
sg29
g30
sa(dp173
g28
g11
sg21
V
sg22
Vr
sg15
F3.4751269817352295
sg23
g27
sg19
g20
sg14
I1
sg29
g30
sa(dp174
g28
g11
sg21
V
sg22
Vr
sg15
F0.70283102989196777
sg23
g27
sg19
g20
sg14
I1
sg29
g30
sa(dp175
g28
g11
sg21
V
sg22
Vr
sg15
F2.1287789344787598
sg23
g27
sg19
g20
sg14
I1
sg29
g30
sa(dp176
g28
g11
sg21
V
sg22
Vr
sg15
F0.94399213790893555
sg23
g27
sg19
g20
sg14
I1
sg29
g30
sa(dp177
g28
g11
sg21
V
sg22
Vr
sg15
F1.8427939414978027
sg23
g27
sg19
g20
sg14
I1
sg29
g30
sa(dp178
g28
g11
sg21
V
sg22
Vr
sg15
F0.96914291381835938
sg23
g27
sg19
g20
sg14
I1
sg29
g30
sa(dp179
g28
g11
sg21
V
sg22
Vr
sg15
F1.7360739707946777
sg23
g27
sg19
g20
sg14
I1
sg29
g30
sa(dp180
g28
g11
sg21
V
sg22
Vr
sg15
F4.3583149909973145
sg23
g27
sg19
g20
sg14
I1
sg29
g30
sa(dp181
g28
g11
sg21
V
sg22
Vr
sg15
F0.59840297698974609
sg23
g27
sg19
g20
sg14
I1
sg29
g30
sa(dp182
g28
g11
sg21
V
sg22
Vr
sg15
F1.901738166809082
sg23
g27
sg19
g20
sg14
I1
sg29
g30
sa(dp183
g28
g11
sg21
V
sg22
Vr
sg15
F0.73659110069274902
sg23
g27
sg19
g20
sg14
I1
sg29
g30
sa(dp184
g28
g11
sg21
V
sg22
Vr
sg15
F2.897881031036377
sg23
g27
sg19
g20
sg14
I0
sg29
g30
sa(dp185
g28
g11
sg21
V
sg22
Vr
sg15
F0.67068696022033691
sg23
g27
sg19
g20
sg14
I1
sg29
g30
sa(dp186
g28
g11
sg21
V
sg22
Vr
sg15
F4.2930231094360352
sg23
g27
sg19
g20
sg14
I1
sg29
g30
sa(dp187
g28
g11
sg21
V
sg22
Vr
sg15
F2.7334489822387695
sg23
g27
sg19
g20
sg14
I1
sg29
g30
sa(dp188
g28
g11
sg21
V
sg22
Vr
sg15
F1.820648193359375
sg23
g27
sg19
g20
sg14
I1
sg29
g30
sa(dp189
g28
g11
sg21
V
sg22
Vr
sg15
F1.0539700984954834
sg23
g27
sg19
g20
sg14
I1
sg29
g30
sa(dp190
g28
g11
sg21
V
sg22
Vr
sg15
F3.6120941638946533
sg23
g27
sg19
g20
sg14
I1
sg29
g30
sa(dp191
g28
g11
sg21
V
sg22
Vr
sg15
F0.65477585792541504
sg23
g27
sg19
g20
sg14
I1
sg29
g30
sa(dp192
g28
g11
sg21
V
sg22
Vr
sg15
F0.77119612693786621
sg23
g27
sg19
g20
sg14
I1
sg29
g30
sa(dp193
g28
g11
sg21
V
sg22
Vr
sg15
F4.5269360542297363
sg23
g27
sg19
g20
sg14
I1
sg29
g30
sa(dp194
g28
g11
sg21
V
sg22
Vr
sg15
F0.62058687210083008
sg23
g27
sg19
g20
sg14
I1
sg29
g30
sa(dp195
g28
g11
sg21
V
sg22
Vr
sg15
F0.8023078441619873
sg23
g27
sg19
g20
sg14
I1
sg29
g30
sa(dp196
g28
g11
sg21
V
sg22
Vr
sg15
F3.245333194732666
sg23
g27
sg19
g20
sg14
I1
sg29
g30
sa(dp197
g28
g11
sg21
V
sg22
Vr
sg15
F0.80740594863891602
sg23
g27
sg19
g20
sg14
I1
sg29
g30
sa(dp198
g28
g11
sg21
V
sg22
Vr
sg15
F0.78782296180725098
sg23
g27
sg19
g20
sg14
I1
sg29
g30
sa(dp199
g28
g11
sg21
V
sg22
Vr
sg15
F2.5205168724060059
sg23
g27
sg19
g20
sg14
I0
sg29
g30
sa(dp200
g28
g11
sg21
V
sg22
Vr
sg15
F2.0389549732208252
sg23
g27
sg19
g20
sg14
I1
sg29
g30
sa(dp201
g28
g11
sg21
V
sg22
Vr
sg15
F2.6213099956512451
sg23
g27
sg19
g20
sg14
I0
sg29
g30
sa(dp202
g28
g11
sg21
V
sg22
Vr
sg15
F4.499351978302002
sg23
g27
sg19
g20
sg14
I0
sg29
g30
sa(dp203
g28
g11
sg21
V
sg22
Vr
sg15
F0.75028085708618164
sg23
g27
sg19
g20
sg14
I1
sg29
g30
sa(dp204
g28
g11
sg21
V
sg22
Vr
sg15
F0.78700804710388184
sg23
g27
sg19
g20
sg14
I1
sg29
g30
sa(dp205
g28
g11
sg21
V
sg22
Vr
sg15
F4.0576090812683105
sg23
g27
sg19
g20
sg14
I0
sg29
g30
sa(dp206
g28
g11
sg21
V
sg22
Vr
sg15
F2.9404861927032471
sg23
g27
sg19
g20
sg14
I1
sg29
g30
sa(dp207
g28
g11
sg21
V
sg22
Vr
sg15
F0.83915495872497559
sg23
g27
sg19
g20
sg14
I1
sg29
g30
sa(dp208
g28
g11
sg21
V
sg22
Vr
sg15
F0.67854213714599609
sg23
g27
sg19
g20
sg14
I1
sg29
g30
sa(dp209
g28
g11
sg21
V
sg22
Vr
sg15
F4.7142620086669922
sg23
g27
sg19
g20
sg14
I1
sg29
g30
sa(dp210
g28
g11
sg21
V
sg22
Vr
sg15
F0.67110896110534668
sg23
g27
sg19
g20
sg14
I1
sg29
g30
sa(dp211
g28
g11
sg21
V
sg22
Vr
sg15
F0.75279498100280762
sg23
g27
sg19
g20
sg14
I1
sg29
g30
sa(dp212
g28
g11
sg21
V
sg22
Vr
sg15
F2.7893579006195068
sg23
g27
sg19
g20
sg14
I1
sg29
g30
sa(dp213
g28
g11
sg21
V
sg22
Vr
sg15
F2.3402001857757568
sg23
g27
sg19
g20
sg14
I0
sg29
g30
sa(dp214
g28
g11
sg21
V
sg22
Vr
sg15
F2.0423588752746582
sg23
g27
sg19
g20
sg14
I0
sg29
g30
sa(dp215
g28
g11
sg21
V
sg22
Vr
sg15
F0.71644687652587891
sg23
g27
sg19
g20
sg14
I1
sg29
g30
sa(dp216
g28
g11
sg21
V
sg22
Vr
sg15
F0.65271806716918945
sg23
g27
sg19
g20
sg14
I1
sg29
g30
sa(dp217
g28
g11
sg21
V
sg22
Vr
sg15
F0.60207104682922363
sg23
g27
sg19
g20
sg14
I1
sg29
g30
sa(dp218
g28
g11
sg21
V
sg22
Vr
sg15
F2.4433012008666992
sg23
g27
sg19
g20
sg14
I1
sg29
g30
sa(dp219
g28
g11
sg21
V
sg22
Vr
sg15
F2.2194828987121582
sg23
g27
sg19
g20
sg14
I1
sg29
g30
sa(dp220
g28
g11
sg21
V
sg22
Vr
sg15
F0.64983892440795898
sg23
g27
sg19
g20
sg14
I1
sg29
g30
sa(dp221
g28
g11
sg21
V
sg22
Vr
sg15
F0.93775081634521484
sg23
g27
sg19
g20
sg14
I1
sg29
g30
sa(dp222
g28
g11
sg21
V
sg22
Vr
sg15
F1.4156050682067871
sg23
g27
sg19
g20
sg14
I1
sg29
g30
sa(dp223
g28
g11
sg21
V
sg22
Vr
sg15
F0.80237102508544922
sg23
g27
sg19
g20
sg14
I1
sg29
g30
sa(dp224
g28
g11
sg21
V
sg22
Vr
sg15
F0.73650908470153809
sg23
g27
sg19
g20
sg14
I1
sg29
g30
sa(dp225
g28
g11
sg21
V
sg22
Vr
sg15
F0.7181861400604248
sg23
g27
sg19
g20
sg14
I1
sg29
g30
sa(dp226
g28
g11
sg21
V
sg22
Vr
sg15
F0.6895289421081543
sg23
g27
sg19
g20
sg14
I1
sg29
g30
sa(dp227
g28
g11
sg21
V
sg22
Vr
sg15
F1.4057948589324951
sg23
g27
sg19
g20
sg14
I1
sg29
g30
sa(dp228
g28
g11
sg21
V
sg22
Vr
sg15
F0.67057108879089355
sg23
g27
sg19
g20
sg14
I1
sg29
g30
sa(dp229
g28
g11
sg21
V
sg22
Vr
sg15
F3.4606938362121582
sg23
g27
sg19
g20
sg14
I1
sg29
g30
sa(dp230
g28
g11
sg21
V
sg22
Vr
sg15
F3.5211949348449707
sg23
g27
sg19
g20
sg14
I0
sg29
g30
sa(dp231
g28
g11
sg21
V
sg22
Vr
sg15
F0.78412413597106934
sg23
g27
sg19
g20
sg14
I1
sg29
g30
sa(dp232
g28
g11
sg21
V
sg22
Vr
sg15
F2.4454360008239746
sg23
g27
sg19
g20
sg14
I0
sg29
g30
sa(dp233
g28
g11
sg21
V
sg22
Vr
sg15
F0.8221747875213623
sg23
g27
sg19
g20
sg14
I0
sg29
g30
sa(dp234
g28
g11
sg21
V
sg22
Vr
sg15
F0.65174317359924316
sg23
g27
sg19
g20
sg14
I1
sg29
g30
sa(dp235
g28
g11
sg21
V
sg22
Vr
sg15
F0.72252893447875977
sg23
g27
sg19
g20
sg14
I1
sg29
g30
sa(dp236
g28
g11
sg21
V
sg22
Vr
sg15
F0.73697304725646973
sg23
g27
sg19
g20
sg14
I1
sg29
g30
sa(dp237
g28
g11
sg21
V
sg22
Vr
sg15
F4.3252689838409424
sg23
g27
sg19
g20
sg14
I1
sg29
g30
sa(dp238
g28
g11
sg21
V
sg22
Vr
sg15
F0.75109505653381348
sg23
g27
sg19
g20
sg14
I1
sg29
g30
sa(dp239
g28
g11
sg21
V
sg22
Vr
sg15
F5.6857810020446777
sg23
g27
sg19
g20
sg14
I0
sg29
g30
sa(dp240
g28
g11
sg21
V
sg22
Vr
sg15
F3.6068358421325684
sg23
g27
sg19
g20
sg14
I0
sg29
g30
sa(dp241
g28
g11
sg21
V
sg22
Vr
sg15
F3.5895349979400635
sg23
g27
sg19
g20
sg14
I0
sg29
g30
sa(dp242
g28
g11
sg21
V
sg22
Vr
sg15
F0.93603181838989258
sg23
g27
sg19
g20
sg14
I1
sg29
g30
sa(dp243
g28
g11
sg21
V
sg22
Vr
sg15
F0.74623513221740723
sg23
g27
sg19
g20
sg14
I1
sg29
g30
sa(dp244
g28
g11
sg21
V
sg22
Vr
sg15
F0.69670701026916504
sg23
g27
sg19
g20
sg14
I1
sg29
g30
sa(dp245
g28
g11
sg21
V
sg22
Vr
sg15
F0.80476593971252441
sg23
g27
sg19
g20
sg14
I1
sg29
g30
sa(dp246
g28
g11
sg21
V
sg22
Vr
sg15
F1.1055300235748291
sg23
g27
sg19
g20
sg14
I1
sg29
g30
sa(dp247
g28
g11
sg21
V
sg22
Vr
sg15
F6.5254921913146973
sg23
g27
sg19
g20
sg14
I1
sg29
g30
sa(dp248
g28
g11
sg21
V
sg22
Vr
sg15
F0.77171015739440918
sg23
g27
sg19
g20
sg14
I1
sg29
g30
sa(dp249
g28
g11
sg21
V
sg22
Vr
sg15
F2.0495409965515137
sg23
g27
sg19
g20
sg14
I1
sg29
g30
sa(dp250
g28
g11
sg21
V
sg22
Vr
sg15
F4.2776651382446289
sg23
g27
sg19
g20
sg14
I0
sg29
g30
sa(dp251
g28
g11
sg21
V
sg22
Vr
sg15
F0.78592705726623535
sg23
g27
sg19
g20
sg14
I1
sg29
g30
sa(dp252
g28
g11
sg21
V
sg22
Vr
sg15
F0.83547496795654297
sg23
g27
sg19
g20
sg14
I1
sg29
g30
sa(dp253
g28
g11
sg21
V
sg22
Vr
sg15
F0.85272383689880371
sg23
g27
sg19
g20
sg14
I1
sg29
g30
sa(dp254
g28
g11
sg21
V
sg22
Vr
sg15
F0.65258002281188965
sg23
g27
sg19
g20
sg14
I1
sg29
g30
sa(dp255
g28
g11
sg21
V
sg22
Vr
sg15
F0.72221493721008301
sg23
g27
sg19
g20
sg14
I1
sg29
g30
sa(dp256
g28
g11
sg21
V
sg22
Vr
sg15
F0.66918301582336426
sg23
g27
sg19
g20
sg14
I1
sg29
g30
sa(dp257
g28
g11
sg21
V
sg22
Vr
sg15
F0.71868491172790527
sg23
g27
sg19
g20
sg14
I1
sg29
g30
sa(dp258
g28
g11
sg21
V
sg22
Vr
sg15
F0.86889410018920898
sg23
g27
sg19
g20
sg14
I1
sg29
g30
sa(dp259
g28
g11
sg21
V
sg22
Vr
sg15
F0.70316100120544434
sg23
g27
sg19
g20
sg14
I1
sg29
g30
sa(dp260
g28
g11
sg21
V
sg22
Vr
sg15
F0.8336179256439209
sg23
g27
sg19
g20
sg14
I1
sg29
g30
sa(dp261
g28
g11
sg21
V
sg22
Vr
sg15
F4.0331919193267822
sg23
g27
sg19
g20
sg14
I0
sg29
g30
sa(dp262
g28
g11
sg21
V
sg22
Vr
sg15
F0.96416783332824707
sg23
g27
sg19
g20
sg14
I1
sg29
g30
sa(dp263
g28
g11
sg21
V
sg22
Vr
sg15
F4.4924628734588623
sg23
g27
sg19
g20
sg14
I1
sg29
g30
sa(dp264
g28
g11
sg21
V
sg22
Vr
sg15
F0.89907312393188477
sg23
g27
sg19
g20
sg14
I1
sg29
g30
sa(dp265
g28
g11
sg21
V
sg22
Vr
sg15
F3.122952938079834
sg23
g27
sg19
g20
sg14
I1
sg29
g30
sa(dp266
g28
g11
sg21
V
sg22
Vr
sg15
F0.67633700370788574
sg23
g27
sg19
g20
sg14
I1
sg29
g30
sa(dp267
g28
g11
sg21
V
sg22
Vr
sg15
F0.69413208961486816
sg23
g27
sg19
g20
sg14
I1
sg29
g30
sa(dp268
g28
g11
sg21
V
sg22
Vr
sg15
F0.42899084091186523
sg23
g27
sg19
g20
sg14
I1
sg29
g30
sa(dp269
g28
g11
sg21
V
sg22
Vr
sg15
F0.79027795791625977
sg23
g27
sg19
g20
sg14
I1
sg29
g30
sa(dp270
g28
g11
sg21
V
sg22
Vr
sg15
F0.85580611228942871
sg23
g27
sg19
g20
sg14
I1
sg29
g30
sa(dp271
g28
g11
sg21
V
sg22
Vr
sg15
F0.62052392959594727
sg23
g27
sg19
g20
sg14
I1
sg29
g30
sa(dp272
g28
g11
sg21
V
sg22
Vr
sg15
F6.3830728530883789
sg23
g27
sg19
g20
sg14
I1
sg29
g30
sa(dp273
g28
g11
sg21
V
sg22
Vr
sg15
F0.67247700691223145
sg23
g27
sg19
g20
sg14
I1
sg29
g30
sa(dp274
g28
g11
sg21
V
sg22
Vr
sg15
F0.70887613296508789
sg23
g27
sg19
g20
sg14
I1
sg29
g30
sa(dp275
g28
g11
sg21
V
sg22
Vr
sg15
F3.6309349536895752
sg23
g27
sg19
g20
sg14
I1
sg29
g30
sa(dp276
g28
g11
sg21
V
sg22
Vr
sg15
F6.1915221214294434
sg23
g27
sg19
g20
sg14
I1
sg29
g30
sa(dp277
g28
g11
sg21
V
sg22
Vr
sg15
F2.6217617988586426
sg23
g27
sg19
g20
sg14
I1
sg29
g30
sa(dp278
g28
g11
sg21
V
sg22
Vr
sg15
F0.86893105506896973
sg23
g27
sg19
g20
sg14
I1
sg29
g30
sa(dp279
g28
g11
sg21
V
sg22
Vr
sg15
F0.70754790306091309
sg23
g27
sg19
g20
sg14
I1
sg29
g30
sa(dp280
g28
g11
sg21
V
sg22
Vr
sg15
F0.7625279426574707
sg23
g27
sg19
g20
sg14
I1
sg29
g30
sa(dp281
g28
g11
sg21
V
sg22
Vr
sg15
F3.2607359886169434
sg23
g27
sg19
g20
sg14
I1
sg29
g30
sa(dp282
g28
g11
sg21
V
sg22
Vr
sg15
F2.6755011081695557
sg23
g27
sg19
g20
sg14
I1
sg29
g30
sa(dp283
g28
g11
sg21
V
sg22
Vr
sg15
F0.98837709426879883
sg23
g27
sg19
g20
sg14
I0
sg29
g30
sa(dp284
g28
g11
sg21
V
sg22
Vr
sg15
F0.73537707328796387
sg23
g27
sg19
g20
sg14
I0
sg29
g30
sa(dp285
g28
g11
sg21
V
sg22
Vr
sg15
F0.75320982933044434
sg23
g27
sg19
g20
sg14
I1
sg29
g30
sa(dp286
g28
g11
sg21
V
sg22
Vr
sg15
F0.80194807052612305
sg23
g27
sg19
g20
sg14
I1
sg29
g30
sa(dp287
g28
g11
sg21
V
sg22
Vr
sg15
F2.613400936126709
sg23
g27
sg19
g20
sg14
I1
sg29
g30
sa(dp288
g28
g11
sg21
V
sg22
Vr
sg15
F3.205672025680542
sg23
g27
sg19
g20
sg14
I1
sg29
g30
sa(dp289
g28
g11
sg21
V
sg22
Vr
sg15
F0.77487802505493164
sg23
g27
sg19
g20
sg14
I1
sg29
g30
sa(dp290
g28
g11
sg21
V
sg22
Vr
sg15
F4.0086719989776611
sg23
g27
sg19
g20
sg14
I1
sg29
g30
sa(dp291
g28
g11
sg21
V
sg22
Vr
sg15
F1.4887750148773193
sg23
g27
sg19
g20
sg14
I1
sg29
g30
sa(dp292
g28
g11
sg21
V
sg22
Vr
sg15
F0.98094701766967773
sg23
g27
sg19
g20
sg14
I1
sg29
g30
sa(dp293
g28
g11
sg21
V
sg22
Vr
sg15
F2.7782077789306641
sg23
g27
sg19
g20
sg14
I0
sg29
g30
sa(dp294
g28
g11
sg21
V
sg22
Vr
sg15
F0.86058807373046875
sg23
g27
sg19
g20
sg14
I1
sg29
g30
sa(dp295
g28
g11
sg21
V
sg22
Vr
sg15
F1.7935128211975098
sg23
g27
sg19
g20
sg14
I1
sg29
g30
sa(dp296
g28
g11
sg21
V
sg22
Vr
sg15
F4.5612189769744873
sg23
g27
sg19
g20
sg14
I0
sg29
g30
sa(dp297
g28
g11
sg21
V
sg22
Vr
sg15
F0.75091791152954102
sg23
g27
sg19
g20
sg14
I1
sg29
g30
sa(dp298
g28
g11
sg21
V
sg22
Vr
sg15
F0.6849210262298584
sg23
g27
sg19
g20
sg14
I1
sg29
g30
sa(dp299
g28
g11
sg21
V
sg22
Vr
sg15
F4.3770210742950439
sg23
g27
sg19
g20
sg14
I0
sg29
g30
sa(dp300
g28
g11
sg21
V
sg22
Vr
sg15
F0.99515199661254883
sg23
g27
sg19
g20
sg14
I1
sg29
g30
sa(dp301
g28
g11
sg21
V
sg22
Vr
sg15
F3.9957559108734131
sg23
g27
sg19
g20
sg14
I0
sg29
g30
sa(dp302
g28
g11
sg21
V
sg22
Vr
sg15
F1.0042300224304199
sg23
g27
sg19
g20
sg14
I1
sg29
g30
sa(dp303
g28
g11
sg21
V
sg22
Vr
sg15
F3.65665602684021
sg23
g27
sg19
g20
sg14
I0
sg29
g30
sa(dp304
g28
g11
sg21
V
sg22
Vr
sg15
F0.8018038272857666
sg23
g27
sg19
g20
sg14
I1
sg29
g30
sa(dp305
g28
g11
sg21
V
sg22
Vr
sg15
F1.0358390808105469
sg23
g27
sg19
g20
sg14
I1
sg29
g30
sa(dp306
g28
g11
sg21
V
sg22
Vr
sg15
F0.71996498107910156
sg23
g27
sg19
g20
sg14
I1
sg29
g30
sa(dp307
g28
g11
sg21
V
sg22
Vr
sg15
F1.8112499713897705
sg23
g27
sg19
g20
sg14
I1
sg29
g30
sa(dp308
g28
g11
sg21
V
sg22
Vr
sg15
F0.71858501434326172
sg23
g27
sg19
g20
sg14
I1
sg29
g30
sa(dp309
g28
g11
sg21
V
sg22
Vr
sg15
F2.4269449710845947
sg23
g27
sg19
g20
sg14
I0
sg29
g30
sa(dp310
g28
g11
sg21
V
sg22
Vr
sg15
F0.76935005187988281
sg23
g27
sg19
g20
sg14
I1
sg29
g30
sa(dp311
g28
g11
sg21
V
sg22
Vr
sg15
F3.2237579822540283
sg23
g27
sg19
g20
sg14
I1
sg29
g30
sa(dp312
g28
g11
sg21
V
sg22
Vr
sg15
F1.3474459648132324
sg23
g27
sg19
g20
sg14
I0
sg29
g30
sa(dp313
g28
g11
sg21
V
sg22
Vr
sg15
F0.85338902473449707
sg23
g27
sg19
g20
sg14
I1
sg29
g30
sa(dp314
g28
g11
sg21
V
sg22
Vr
sg15
F6.6905820369720459
sg23
g27
sg19
g20
sg14
I1
sg29
g30
sa(dp315
g28
g11
sg21
V
sg22
Vr
sg15
F3.7931170463562012
sg23
g27
sg19
g20
sg14
I1
sg29
g30
sa(dp316
g28
g11
sg21
V
sg22
Vr
sg15
F2.9059441089630127
sg23
g27
sg19
g20
sg14
I1
sg29
g30
sa(dp317
g28
g11
sg21
V
sg22
Vr
sg15
F0.84868693351745605
sg23
g27
sg19
g20
sg14
I1
sg29
g30
sa(dp318
g28
g11
sg21
V
sg22
Vr
sg15
F0.88612198829650879
sg23
g27
sg19
g20
sg14
I1
sg29
g30
sa(dp319
g28
g11
sg21
V
sg22
Vr
sg15
F0.83674001693725586
sg23
g27
sg19
g20
sg14
I1
sg29
g30
sa(dp320
g28
g11
sg21
V
sg22
Vr
sg15
F0.66817498207092285
sg23
g27
sg19
g20
sg14
I1
sg29
g30
sa(dp321
g28
g11
sg21
V
sg22
Vr
sg15
F0.7187960147857666
sg23
g27
sg19
g20
sg14
I1
sg29
g30
sa(dp322
g28
g11
sg21
V
sg22
Vr
sg15
F0.65642118453979492
sg23
g27
sg19
g20
sg14
I1
sg29
g30
sa(dp323
g28
g11
sg21
V
sg22
Vr
sg15
F0.72267603874206543
sg23
g27
sg19
g20
sg14
I1
sg29
g30
sa(dp324
g28
g11
sg21
V
sg22
Vr
sg15
F5.2783892154693604
sg23
g27
sg19
g20
sg14
I1
sg29
g30
sa(dp325
g28
g11
sg21
V
sg22
Vr
sg15
F0.76796913146972656
sg23
g27
sg19
g20
sg14
I1
sg29
g30
sa(dp326
g28
g11
sg21
V
sg22
Vr
sg15
F0.75018310546875
sg23
g27
sg19
g20
sg14
I1
sg29
g30
sa(dp327
g28
g11
sg21
V
sg22
Vr
sg15
F3.5149779319763184
sg23
g27
sg19
g20
sg14
I0
sg29
g30
sa(dp328
g28
g11
sg21
V
sg22
Vr
sg15
F0.81968116760253906
sg23
g27
sg19
g20
sg14
I1
sg29
g30
sa(dp329
g28
g11
sg21
V
sg22
Vr
sg15
F0.70804500579833984
sg23
g27
sg19
g20
sg14
I1
sg29
g30
sa(dp330
g28
g11
sg21
V
sg22
Vr
sg15
F1.6204879283905029
sg23
g27
sg19
g20
sg14
I1
sg29
g30
sa(dp331
g28
g11
sg21
V
sg22
Vr
sg15
F1.5707111358642578
sg23
g27
sg19
g20
sg14
I0
sg29
g30
sa(dp332
g28
g11
sg21
V
sg22
Vr
sg15
F0.73565101623535156
sg23
g27
sg19
g20
sg14
I1
sg29
g30
sa(dp333
g28
g11
sg21
V
sg22
Vr
sg15
F0.91879010200500488
sg23
g27
sg19
g20
sg14
I1
sg29
g30
sa(dp334
g28
g11
sg21
V
sg22
Vr
sg15
F2.5387468338012695
sg23
g27
sg19
g20
sg14
I1
sg29
g30
sa(dp335
g28
g11
sg21
V
sg22
Vr
sg15
F0.89400506019592285
sg23
g27
sg19
g20
sg14
I1
sg29
g30
sa(dp336
g28
g11
sg21
V
sg22
Vr
sg15
F0.86863899230957031
sg23
g27
sg19
g20
sg14
I1
sg29
g30
sa(dp337
g28
g11
sg21
V
sg22
Vr
sg15
F5.6164369583129883
sg23
g27
sg19
g20
sg14
I0
sg29
g30
sa(dp338
g28
g11
sg21
V
sg22
Vr
sg15
F2.1886229515075684
sg23
g27
sg19
g20
sg14
I1
sg29
g30
sa(dp339
g28
g11
sg21
V
sg22
Vr
sg15
F0.83280301094055176
sg23
g27
sg19
g20
sg14
I1
sg29
g30
sa(dp340
g28
g11
sg21
V
sg22
Vr
sg15
F1.9215478897094727
sg23
g27
sg19
g20
sg14
I1
sg29
g30
sa(dp341
g28
g11
sg21
V
sg22
Vr
sg15
F0.66248106956481934
sg23
g27
sg19
g20
sg14
I1
sg29
g30
sa(dp342
g28
g11
sg21
V
sg22
Vr
sg15
F0.68996095657348633
sg23
g27
sg19
g20
sg14
I1
sg29
g30
sa(dp343
g28
g11
sg21
V
sg22
Vr
sg15
F14.011403799057007
sg23
g27
sg19
g20
sg14
I0
sg29
g30
sa(dp344
g28
g11
sg21
V
sg22
Vr
sg15
F2.1581070423126221
sg23
g27
sg19
g20
sg14
I1
sg29
g30
sa(dp345
g28
g11
sg21
V
sg22
Vr
sg15
F3.603891134262085
sg23
g27
sg19
g20
sg14
I0
sg29
g30
sa(dp346
g28
g11
sg21
V
sg22
Vr
sg15
F2.8783318996429443
sg23
g27
sg19
g20
sg14
I1
sg29
g30
sa(dp347
g28
g11
sg21
V
sg22
Vr
sg15
F1.2058079242706299
sg23
g27
sg19
g20
sg14
I1
sg29
g30
sa(dp348
g28
g11
sg21
V
sg22
Vr
sg15
F0.68449687957763672
sg23
g27
sg19
g20
sg14
I1
sg29
g30
sa(dp349
g28
g11
sg21
V
sg22
Vr
sg15
F0.66872215270996094
sg23
g27
sg19
g20
sg14
I1
sg29
g30
sa(dp350
g28
g11
sg21
V
sg22
Vr
sg15
F1.0339460372924805
sg23
g27
sg19
g20
sg14
I1
sg29
g30
sa(dp351
g28
g11
sg21
V
sg22
Vr
sg15
F1.2342598438262939
sg23
g27
sg19
g20
sg14
I1
sg29
g30
sa(dp352
g28
g11
sg21
V
sg22
Vr
sg15
F0.75252914428710938
sg23
g27
sg19
g20
sg14
I1
sg29
g30
sa(dp353
g28
g11
sg21
V
sg22
Vr
sg15
F4.0625607967376709
sg23
g27
sg19
g20
sg14
I0
sg29
g30
sa(dp354
g28
g11
sg21
V
sg22
Vr
sg15
F2.2404830455780029
sg23
g27
sg19
g20
sg14
I1
sg29
g30
sa(dp355
g28
g11
sg21
V
sg22
Vr
sg15
F2.873715877532959
sg23
g27
sg19
g20
sg14
I1
sg29
g30
sa(dp356
g28
g11
sg21
V
sg22
Vr
sg15
F0.98873305320739746
sg23
g27
sg19
g20
sg14
I1
sg29
g30
sa(dp357
g28
g11
sg21
V
sg22
Vr
sg15
F0.83770608901977539
sg23
g27
sg19
g20
sg14
I1
sg29
g30
sa(dp358
g28
g11
sg21
V
sg22
Vr
sg15
F3.2240140438079834
sg23
g27
sg19
g20
sg14
I1
sg29
g30
sa(dp359
g28
g11
sg21
V
sg22
Vr
sg15
F4.4958219528198242
sg23
g27
sg19
g20
sg14
I0
sg29
g30
sa(dp360
g28
g11
sg21
V
sg22
Vr
sg15
F0.93665790557861328
sg23
g27
sg19
g20
sg14
I1
sg29
g30
sa(dp361
g28
g11
sg21
V
sg22
Vr
sg15
F1.0339028835296631
sg23
g27
sg19
g20
sg14
I1
sg29
g30
sa(dp362
g28
g11
sg21
V
sg22
Vr
sg15
F1.8372058868408203
sg23
g27
sg19
g20
sg14
I1
sg29
g30
sa(dp363
g28
g11
sg21
V
sg22
Vr
sg15
F4.1936979293823242
sg23
g27
sg19
g20
sg14
I1
sg29
g30
sa(dp364
g28
g11
sg21
V
sg22
Vr
sg15
F3.3967800140380859
sg23
g27
sg19
g20
sg14
I0
sg29
g30
sa(dp365
g28
g11
sg21
V
sg22
Vr
sg15
F0.78376507759094238
sg23
g27
sg19
g20
sg14
I1
sg29
g30
sa(dp366
g28
g11
sg21
V
sg22
Vr
sg15
F2.8780720233917236
sg23
g27
sg19
g20
sg14
I1
sg29
g30
sa(dp367
g28
g11
sg21
V
sg22
Vr
sg15
F0.80167198181152344
sg23
g27
sg19
g20
sg14
I1
sg29
g30
sa(dp368
g28
g11
sg21
V
sg22
Vr
sg15
F0.95429015159606934
sg23
g27
sg19
g20
sg14
I1
sg29
g30
sa(dp369
g28
g11
sg21
V
sg22
Vr
sg15
F1.51780104637146
sg23
g27
sg19
g20
sg14
I0
sg29
g30
sa(dp370
g28
g11
sg21
V
sg22
Vr
sg15
F1.5369150638580322
sg23
g27
sg19
g20
sg14
I1
sg29
g30
sa(dp371
g28
g11
sg21
V
sg22
Vr
sg15
F0.71861481666564941
sg23
g27
sg19
g20
sg14
I1
sg29
g30
sa(dp372
g28
g11
sg21
V
sg22
Vr
sg15
F0.92393708229064941
sg23
g27
sg19
g20
sg14
I1
sg29
g30
sa(dp373
g28
g11
sg21
V
sg22
Vr
sg15
F1.7938051223754883
sg23
g27
sg19
g20
sg14
I1
sg29
g30
sa(dp374
g28
g11
sg21
V
sg22
Vr
sg15
F0.80167603492736816
sg23
g27
sg19
g20
sg14
I1
sg29
g30
sa(dp375
g28
g11
sg21
V
sg22
Vr
sg15
F0.74328088760375977
sg23
g27
sg19
g20
sg14
I1
sg29
g30
sa(dp376
g28
g11
sg21
V
sg22
Vr
sg15
F0.94082403182983398
sg23
g27
sg19
g20
sg14
I1
sg29
g30
sa(dp377
g28
g11
sg21
V
sg22
Vr
sg15
F0.63364696502685547
sg23
g27
sg19
g20
sg14
I1
sg29
g30
sa(dp378
g28
g11
sg21
V
sg22
Vr
sg15
F3.1234290599822998
sg23
g27
sg19
g20
sg14
I0
sg29
g30
sa(dp379
g28
g11
sg21
V
sg22
Vr
sg15
F0.81903696060180664
sg23
g27
sg19
g20
sg14
I1
sg29
g30
sa(dp380
g28
g11
sg21
V
sg22
Vr
sg15
F1.7619109153747559
sg23
g27
sg19
g20
sg14
I0
sg29
g30
sa(dp381
g28
g11
sg21
V
sg22
Vr
sg15
F2.0224971771240234
sg23
g27
sg19
g20
sg14
I0
sg29
g30
sa(dp382
g28
g11
sg21
V
sg22
Vr
sg15
F0.72579407691955566
sg23
g27
sg19
g20
sg14
I1
sg29
g30
sa(dp383
g28
g11
sg21
V
sg22
Vr
sg15
F2.1209161281585693
sg23
g27
sg19
g20
sg14
I1
sg29
g30
sa(dp384
g28
g11
sg21
V
sg22
Vr
sg15
F0.7863929271697998
sg23
g27
sg19
g20
sg14
I1
sg29
g30
sa(dp385
g28
g11
sg21
V
sg22
Vr
sg15
F3.9073200225830078
sg23
g27
sg19
g20
sg14
I1
sg29
g30
sa(dp386
g28
g11
sg21
V
sg22
Vr
sg15
F1.0714819431304932
sg23
g27
sg19
g20
sg14
I1
sg29
g30
sa(dp387
g28
g11
sg21
V
sg22
Vr
sg15
F2.9830451011657715
sg23
g27
sg19
g20
sg14
I0
sg29
g30
sa(dp388
g28
g11
sg21
V
sg22
Vr
sg15
F0.76822614669799805
sg23
g27
sg19
g20
sg14
I1
sg29
g30
sa(dp389
g28
g11
sg21
V
sg22
Vr
sg15
F1.0042860507965088
sg23
g27
sg19
g20
sg14
I1
sg29
g30
sa(dp390
g28
g11
sg21
V
sg22
Vr
sg15
F0.84032893180847168
sg23
g27
sg19
g20
sg14
I1
sg29
g30
sa(dp391
g28
g11
sg21
V
sg22
Vr
sg15
F0.72148299217224121
sg23
g27
sg19
g20
sg14
I1
sg29
g30
sa(dp392
g28
g11
sg21
V
sg22
Vr
sg15
F0.76889300346374512
sg23
g27
sg19
g20
sg14
I1
sg29
g30
sa(dp393
g28
g11
sg21
V
sg22
Vr
sg15
F0.91865897178649902
sg23
g27
sg19
g20
sg14
I1
sg29
g30
sa(dp394
g28
g11
sg21
V
sg22
Vr
sg15
F0.8541111946105957
sg23
g27
sg19
g20
sg14
I1
sg29
g30
sa(dp395
g28
g11
sg21
V
sg22
Vr
sg15
F2.6219010353088379
sg23
g27
sg19
g20
sg14
I0
sg29
g30
sa(dp396
g28
g11
sg21
V
sg22
Vr
sg15
F0.7172999382019043
sg23
g27
sg19
g20
sg14
I1
sg29
g30
sa(dp397
g28
g11
sg21
V
sg22
Vr
sg15
F0.67666292190551758
sg23
g27
sg19
g20
sg14
I1
sg29
g30
sa(dp398
g28
g11
sg21
V
sg22
Vr
sg15
F0.79548287391662598
sg23
g27
sg19
g20
sg14
I1
sg29
g30
sa(dp399
g28
g11
sg21
V
sg22
Vr
sg15
F7.5487141609191895
sg23
g27
sg19
g20
sg14
I1
sg29
g30
sa(dp400
g28
g11
sg21
V
sg22
Vr
sg15
F1.4869868755340576
sg23
g27
sg19
g20
sg14
I1
sg29
g30
sasS'loops'
p401
(lp402
sS'savePickle'
p403
I00
sb.