ccopy_reg
_reconstructor
p1
(cpsychopy.data
ExperimentHandler
p2
c__builtin__
object
p3
NtRp4
(dp5
S'originPath'
p6
NsS'dataFileName'
p7
V/Users/egor/Dropbox/projects/supr-eff/supreff/data/supreff_4_r_01_2015_Apr_09_1615
p8
sS'runtimeInfo'
p9
NsS'name'
p10
S'supreff'
p11
sS'dataNames'
p12
(lp13
S'.response'
p14
aS'key_upDown.rt'
p15
asS'autoLog'
p16
I01
sS'extraInfo'
p17
(dp18
Vsession
p19
V01
p20
sVparticipant
p21
V4
sVdomEye
p22
Vr
sS'frameRate'
p23
cnumpy.core.multiarray
scalar
p24
(cnumpy
dtype
p25
(S'f8'
I0
I1
tRp26
(I3
S'<'
NNNI-1
I-1
I0
tbS'/\x7f\xeb\x1cK8N@'
tRp27
sS'expName'
p28
g11
sS'date'
p29
V2015_Apr_09_1615
p30
ssS'loopsUnfinished'
p31
(lp32
sS'saveWideText'
p33
I01
sS'thisEntry'
p34
(dp35
sS'version'
p36
S''
sS'_paramNamesSoFar'
p37
(lp38
sS'entries'
p39
(lp40
(dp41
g28
g11
sg21
V4
sg22
Vr
sg15
F3.8345370292663574
sg23
g27
sg19
g20
sg14
I1
sg29
g30
sa(dp42
g28
g11
sg21
V4
sg22
Vr
sg15
F4.5048348903656006
sg23
g27
sg19
g20
sg14
I1
sg29
g30
sa(dp43
g28
g11
sg21
V4
sg22
Vr
sg15
F0.9139409065246582
sg23
g27
sg19
g20
sg14
I1
sg29
g30
sa(dp44
g28
g11
sg21
V4
sg22
Vr
sg15
F3.381026029586792
sg23
g27
sg19
g20
sg14
I0
sg29
g30
sa(dp45
g28
g11
sg21
V4
sg22
Vr
sg15
F3.0074141025543213
sg23
g27
sg19
g20
sg14
I0
sg29
g30
sa(dp46
g28
g11
sg21
V4
sg22
Vr
sg15
F1.5538759231567383
sg23
g27
sg19
g20
sg14
I1
sg29
g30
sa(dp47
g28
g11
sg21
V4
sg22
Vr
sg15
F1.4140818119049072
sg23
g27
sg19
g20
sg14
I1
sg29
g30
sa(dp48
g28
g11
sg21
V4
sg22
Vr
sg15
F1.2641620635986328
sg23
g27
sg19
g20
sg14
I1
sg29
g30
sa(dp49
g28
g11
sg21
V4
sg22
Vr
sg15
F1.4974651336669922
sg23
g27
sg19
g20
sg14
I1
sg29
g30
sa(dp50
g28
g11
sg21
V4
sg22
Vr
sg15
F0.95967006683349609
sg23
g27
sg19
g20
sg14
I1
sg29
g30
sa(dp51
g28
g11
sg21
V4
sg22
Vr
sg15
F0.8219449520111084
sg23
g27
sg19
g20
sg14
I1
sg29
g30
sa(dp52
g28
g11
sg21
V4
sg22
Vr
sg15
F0.86426901817321777
sg23
g27
sg19
g20
sg14
I1
sg29
g30
sa(dp53
g28
g11
sg21
V4
sg22
Vr
sg15
F4.9897031784057617
sg23
g27
sg19
g20
sg14
I0
sg29
g30
sa(dp54
g28
g11
sg21
V4
sg22
Vr
sg15
F0.87965893745422363
sg23
g27
sg19
g20
sg14
I1
sg29
g30
sa(dp55
g28
g11
sg21
V4
sg22
Vr
sg15
F0.69637799263000488
sg23
g27
sg19
g20
sg14
I1
sg29
g30
sa(dp56
g28
g11
sg21
V4
sg22
Vr
sg15
F2.8071849346160889
sg23
g27
sg19
g20
sg14
I0
sg29
g30
sa(dp57
g28
g11
sg21
V4
sg22
Vr
sg15
F1.2491350173950195
sg23
g27
sg19
g20
sg14
I1
sg29
g30
sa(dp58
g28
g11
sg21
V4
sg22
Vr
sg15
F0.75041794776916504
sg23
g27
sg19
g20
sg14
I1
sg29
g30
sa(dp59
g28
g11
sg21
V4
sg22
Vr
sg15
F1.0855731964111328
sg23
g27
sg19
g20
sg14
I1
sg29
g30
sa(dp60
g28
g11
sg21
V4
sg22
Vr
sg15
F3.5855660438537598
sg23
g27
sg19
g20
sg14
I1
sg29
g30
sa(dp61
g28
g11
sg21
V4
sg22
Vr
sg15
F0.66327905654907227
sg23
g27
sg19
g20
sg14
I1
sg29
g30
sa(dp62
g28
g11
sg21
V4
sg22
Vr
sg15
F2.2996160984039307
sg23
g27
sg19
g20
sg14
I1
sg29
g30
sa(dp63
g28
g11
sg21
V4
sg22
Vr
sg15
F0.94764995574951172
sg23
g27
sg19
g20
sg14
I1
sg29
g30
sa(dp64
g28
g11
sg21
V4
sg22
Vr
sg15
F0.78901100158691406
sg23
g27
sg19
g20
sg14
I1
sg29
g30
sa(dp65
g28
g11
sg21
V4
sg22
Vr
sg15
F0.81111812591552734
sg23
g27
sg19
g20
sg14
I1
sg29
g30
sa(dp66
g28
g11
sg21
V4
sg22
Vr
sg15
F0.64691996574401855
sg23
g27
sg19
g20
sg14
I1
sg29
g30
sa(dp67
g28
g11
sg21
V4
sg22
Vr
sg15
F0.67943000793457031
sg23
g27
sg19
g20
sg14
I1
sg29
g30
sa(dp68
g28
g11
sg21
V4
sg22
Vr
sg15
F0.64232206344604492
sg23
g27
sg19
g20
sg14
I1
sg29
g30
sa(dp69
g28
g11
sg21
V4
sg22
Vr
sg15
F0.93151092529296875
sg23
g27
sg19
g20
sg14
I1
sg29
g30
sa(dp70
g28
g11
sg21
V4
sg22
Vr
sg15
F0.69604802131652832
sg23
g27
sg19
g20
sg14
I1
sg29
g30
sa(dp71
g28
g11
sg21
V4
sg22
Vr
sg15
F0.71622395515441895
sg23
g27
sg19
g20
sg14
I1
sg29
g30
sa(dp72
g28
g11
sg21
V4
sg22
Vr
sg15
F4.1191079616546631
sg23
g27
sg19
g20
sg14
I1
sg29
g30
sa(dp73
g28
g11
sg21
V4
sg22
Vr
sg15
F0.96487021446228027
sg23
g27
sg19
g20
sg14
I1
sg29
g30
sa(dp74
g28
g11
sg21
V4
sg22
Vr
sg15
F1.8889119625091553
sg23
g27
sg19
g20
sg14
I0
sg29
g30
sa(dp75
g28
g11
sg21
V4
sg22
Vr
sg15
F2.0334560871124268
sg23
g27
sg19
g20
sg14
I1
sg29
g30
sa(dp76
g28
g11
sg21
V4
sg22
Vr
sg15
F4.3215479850769043
sg23
g27
sg19
g20
sg14
I1
sg29
g30
sa(dp77
g28
g11
sg21
V4
sg22
Vr
sg15
F0.81408286094665527
sg23
g27
sg19
g20
sg14
I1
sg29
g30
sa(dp78
g28
g11
sg21
V4
sg22
Vr
sg15
F0.69643592834472656
sg23
g27
sg19
g20
sg14
I1
sg29
g30
sa(dp79
g28
g11
sg21
V4
sg22
Vr
sg15
F0.6805119514465332
sg23
g27
sg19
g20
sg14
I1
sg29
g30
sa(dp80
g28
g11
sg21
V4
sg22
Vr
sg15
F3.342149019241333
sg23
g27
sg19
g20
sg14
I0
sg29
g30
sa(dp81
g28
g11
sg21
V4
sg22
Vr
sg15
F1.4402101039886475
sg23
g27
sg19
g20
sg14
I1
sg29
g30
sa(dp82
g28
g11
sg21
V4
sg22
Vr
sg15
F0.76707315444946289
sg23
g27
sg19
g20
sg14
I1
sg29
g30
sa(dp83
g28
g11
sg21
V4
sg22
Vr
sg15
F0.71497106552124023
sg23
g27
sg19
g20
sg14
I1
sg29
g30
sa(dp84
g28
g11
sg21
V4
sg22
Vr
sg15
F0.69794511795043945
sg23
g27
sg19
g20
sg14
I1
sg29
g30
sa(dp85
g28
g11
sg21
V4
sg22
Vr
sg15
F3.65264892578125
sg23
g27
sg19
g20
sg14
I1
sg29
g30
sa(dp86
g28
g11
sg21
V4
sg22
Vr
sg15
F1.0642719268798828
sg23
g27
sg19
g20
sg14
I1
sg29
g30
sa(dp87
g28
g11
sg21
V4
sg22
Vr
sg15
F1.7892308235168457
sg23
g27
sg19
g20
sg14
I1
sg29
g30
sa(dp88
g28
g11
sg21
V4
sg22
Vr
sg15
F3.4980661869049072
sg23
g27
sg19
g20
sg14
I0
sg29
g30
sa(dp89
g28
g11
sg21
V4
sg22
Vr
sg15
F3.5680270195007324
sg23
g27
sg19
g20
sg14
I0
sg29
g30
sa(dp90
g28
g11
sg21
V4
sg22
Vr
sg15
F2.7515268325805664
sg23
g27
sg19
g20
sg14
I1
sg29
g30
sa(dp91
g28
g11
sg21
V4
sg22
Vr
sg15
F1.0301439762115479
sg23
g27
sg19
g20
sg14
I1
sg29
g30
sa(dp92
g28
g11
sg21
V4
sg22
Vr
sg15
F0.98051595687866211
sg23
g27
sg19
g20
sg14
I1
sg29
g30
sa(dp93
g28
g11
sg21
V4
sg22
Vr
sg15
F0.91889595985412598
sg23
g27
sg19
g20
sg14
I1
sg29
g30
sa(dp94
g28
g11
sg21
V4
sg22
Vr
sg15
F0.96670389175415039
sg23
g27
sg19
g20
sg14
I1
sg29
g30
sa(dp95
g28
g11
sg21
V4
sg22
Vr
sg15
F3.2344880104064941
sg23
g27
sg19
g20
sg14
I1
sg29
g30
sa(dp96
g28
g11
sg21
V4
sg22
Vr
sg15
F0.96360397338867188
sg23
g27
sg19
g20
sg14
I1
sg29
g30
sa(dp97
g28
g11
sg21
V4
sg22
Vr
sg15
F1.0878989696502686
sg23
g27
sg19
g20
sg14
I1
sg29
g30
sa(dp98
g28
g11
sg21
V4
sg22
Vr
sg15
F0.73049306869506836
sg23
g27
sg19
g20
sg14
I1
sg29
g30
sa(dp99
g28
g11
sg21
V4
sg22
Vr
sg15
F1.249885082244873
sg23
g27
sg19
g20
sg14
I1
sg29
g30
sa(dp100
g28
g11
sg21
V4
sg22
Vr
sg15
F4.3377771377563477
sg23
g27
sg19
g20
sg14
I1
sg29
g30
sa(dp101
g28
g11
sg21
V4
sg22
Vr
sg15
F2.3999538421630859
sg23
g27
sg19
g20
sg14
I0
sg29
g30
sa(dp102
g28
g11
sg21
V4
sg22
Vr
sg15
F1.3636651039123535
sg23
g27
sg19
g20
sg14
I1
sg29
g30
sa(dp103
g28
g11
sg21
V4
sg22
Vr
sg15
F1.2304887771606445
sg23
g27
sg19
g20
sg14
I1
sg29
g30
sa(dp104
g28
g11
sg21
V4
sg22
Vr
sg15
F2.4214189052581787
sg23
g27
sg19
g20
sg14
I1
sg29
g30
sa(dp105
g28
g11
sg21
V4
sg22
Vr
sg15
F3.0695741176605225
sg23
g27
sg19
g20
sg14
I0
sg29
g30
sa(dp106
g28
g11
sg21
V4
sg22
Vr
sg15
F3.134598970413208
sg23
g27
sg19
g20
sg14
I1
sg29
g30
sa(dp107
g28
g11
sg21
V4
sg22
Vr
sg15
F3.5452370643615723
sg23
g27
sg19
g20
sg14
I1
sg29
g30
sa(dp108
g28
g11
sg21
V4
sg22
Vr
sg15
F4.3585588932037354
sg23
g27
sg19
g20
sg14
I1
sg29
g30
sa(dp109
g28
g11
sg21
V4
sg22
Vr
sg15
F4.0364160537719727
sg23
g27
sg19
g20
sg14
I1
sg29
g30
sa(dp110
g28
g11
sg21
V4
sg22
Vr
sg15
F3.784390926361084
sg23
g27
sg19
g20
sg14
I0
sg29
g30
sa(dp111
g28
g11
sg21
V4
sg22
Vr
sg15
F3.4687089920043945
sg23
g27
sg19
g20
sg14
I1
sg29
g30
sa(dp112
g28
g11
sg21
V4
sg22
Vr
sg15
F3.7581589221954346
sg23
g27
sg19
g20
sg14
I0
sg29
g30
sa(dp113
g28
g11
sg21
V4
sg22
Vr
sg15
F3.6875131130218506
sg23
g27
sg19
g20
sg14
I0
sg29
g30
sa(dp114
g28
g11
sg21
V4
sg22
Vr
sg15
F3.1010119915008545
sg23
g27
sg19
g20
sg14
I0
sg29
g30
sa(dp115
g28
g11
sg21
V4
sg22
Vr
sg15
F1.1872959136962891
sg23
g27
sg19
g20
sg14
I1
sg29
g30
sa(dp116
g28
g11
sg21
V4
sg22
Vr
sg15
F3.8929319381713867
sg23
g27
sg19
g20
sg14
I1
sg29
g30
sa(dp117
g28
g11
sg21
V4
sg22
Vr
sg15
F1.5982789993286133
sg23
g27
sg19
g20
sg14
I0
sg29
g30
sa(dp118
g28
g11
sg21
V4
sg22
Vr
sg15
F0.87813806533813477
sg23
g27
sg19
g20
sg14
I1
sg29
g30
sa(dp119
g28
g11
sg21
V4
sg22
Vr
sg15
F3.6190600395202637
sg23
g27
sg19
g20
sg14
I1
sg29
g30
sa(dp120
g28
g11
sg21
V4
sg22
Vr
sg15
F2.1675817966461182
sg23
g27
sg19
g20
sg14
I0
sg29
g30
sa(dp121
g28
g11
sg21
V4
sg22
Vr
sg15
F0.84870004653930664
sg23
g27
sg19
g20
sg14
I1
sg29
g30
sa(dp122
g28
g11
sg21
V4
sg22
Vr
sg15
F3.62331223487854
sg23
g27
sg19
g20
sg14
I1
sg29
g30
sa(dp123
g28
g11
sg21
V4
sg22
Vr
sg15
F2.7181918621063232
sg23
g27
sg19
g20
sg14
I0
sg29
g30
sa(dp124
g28
g11
sg21
V4
sg22
Vr
sg15
F3.9716849327087402
sg23
g27
sg19
g20
sg14
I1
sg29
g30
sa(dp125
g28
g11
sg21
V4
sg22
Vr
sg15
F3.4460511207580566
sg23
g27
sg19
g20
sg14
I0
sg29
g30
sa(dp126
g28
g11
sg21
V4
sg22
Vr
sg15
F1.3475840091705322
sg23
g27
sg19
g20
sg14
I1
sg29
g30
sa(dp127
g28
g11
sg21
V4
sg22
Vr
sg15
F2.9717848300933838
sg23
g27
sg19
g20
sg14
I0
sg29
g30
sa(dp128
g28
g11
sg21
V4
sg22
Vr
sg15
F1.1323120594024658
sg23
g27
sg19
g20
sg14
I1
sg29
g30
sa(dp129
g28
g11
sg21
V4
sg22
Vr
sg15
F0.86379098892211914
sg23
g27
sg19
g20
sg14
I1
sg29
g30
sa(dp130
g28
g11
sg21
V4
sg22
Vr
sg15
F0.76280307769775391
sg23
g27
sg19
g20
sg14
I1
sg29
g30
sa(dp131
g28
g11
sg21
V4
sg22
Vr
sg15
F4.3747661113739014
sg23
g27
sg19
g20
sg14
I1
sg29
g30
sa(dp132
g28
g11
sg21
V4
sg22
Vr
sg15
F3.1230390071868896
sg23
g27
sg19
g20
sg14
I0
sg29
g30
sa(dp133
g28
g11
sg21
V4
sg22
Vr
sg15
F2.2508141994476318
sg23
g27
sg19
g20
sg14
I0
sg29
g30
sa(dp134
g28
g11
sg21
V4
sg22
Vr
sg15
F0.9137871265411377
sg23
g27
sg19
g20
sg14
I1
sg29
g30
sa(dp135
g28
g11
sg21
V4
sg22
Vr
sg15
F0.7617638111114502
sg23
g27
sg19
g20
sg14
I1
sg29
g30
sa(dp136
g28
g11
sg21
V4
sg22
Vr
sg15
F1.1648759841918945
sg23
g27
sg19
g20
sg14
I1
sg29
g30
sa(dp137
g28
g11
sg21
V4
sg22
Vr
sg15
F0.76673412322998047
sg23
g27
sg19
g20
sg14
I1
sg29
g30
sa(dp138
g28
g11
sg21
V4
sg22
Vr
sg15
F3.0667929649353027
sg23
g27
sg19
g20
sg14
I1
sg29
g30
sa(dp139
g28
g11
sg21
V4
sg22
Vr
sg15
F0.87150311470031738
sg23
g27
sg19
g20
sg14
I1
sg29
g30
sa(dp140
g28
g11
sg21
V4
sg22
Vr
sg15
F3.286283016204834
sg23
g27
sg19
g20
sg14
I0
sg29
g30
sa(dp141
g28
g11
sg21
V4
sg22
Vr
sg15
F4.9067819118499756
sg23
g27
sg19
g20
sg14
I0
sg29
g30
sa(dp142
g28
g11
sg21
V4
sg22
Vr
sg15
F1.0818672180175781
sg23
g27
sg19
g20
sg14
I1
sg29
g30
sa(dp143
g28
g11
sg21
V4
sg22
Vr
sg15
F0.79676485061645508
sg23
g27
sg19
g20
sg14
I1
sg29
g30
sa(dp144
g28
g11
sg21
V4
sg22
Vr
sg15
F3.1401619911193848
sg23
g27
sg19
g20
sg14
I0
sg29
g30
sa(dp145
g28
g11
sg21
V4
sg22
Vr
sg15
F0.88001799583435059
sg23
g27
sg19
g20
sg14
I1
sg29
g30
sa(dp146
g28
g11
sg21
V4
sg22
Vr
sg15
F1.1928920745849609
sg23
g27
sg19
g20
sg14
I1
sg29
g30
sa(dp147
g28
g11
sg21
V4
sg22
Vr
sg15
F0.69876909255981445
sg23
g27
sg19
g20
sg14
I1
sg29
g30
sa(dp148
g28
g11
sg21
V4
sg22
Vr
sg15
F1.2490060329437256
sg23
g27
sg19
g20
sg14
I1
sg29
g30
sa(dp149
g28
g11
sg21
V4
sg22
Vr
sg15
F0.94316506385803223
sg23
g27
sg19
g20
sg14
I1
sg29
g30
sa(dp150
g28
g11
sg21
V4
sg22
Vr
sg15
F4.276993989944458
sg23
g27
sg19
g20
sg14
I1
sg29
g30
sa(dp151
g28
g11
sg21
V4
sg22
Vr
sg15
F0.76395082473754883
sg23
g27
sg19
g20
sg14
I1
sg29
g30
sa(dp152
g28
g11
sg21
V4
sg22
Vr
sg15
F2.8863790035247803
sg23
g27
sg19
g20
sg14
I1
sg29
g30
sa(dp153
g28
g11
sg21
V4
sg22
Vr
sg15
F2.0661101341247559
sg23
g27
sg19
g20
sg14
I1
sg29
g30
sa(dp154
g28
g11
sg21
V4
sg22
Vr
sg15
F0.69815587997436523
sg23
g27
sg19
g20
sg14
I1
sg29
g30
sa(dp155
g28
g11
sg21
V4
sg22
Vr
sg15
F0.86364984512329102
sg23
g27
sg19
g20
sg14
I1
sg29
g30
sa(dp156
g28
g11
sg21
V4
sg22
Vr
sg15
F0.72348284721374512
sg23
g27
sg19
g20
sg14
I1
sg29
g30
sa(dp157
g28
g11
sg21
V4
sg22
Vr
sg15
F0.68172097206115723
sg23
g27
sg19
g20
sg14
I1
sg29
g30
sa(dp158
g28
g11
sg21
V4
sg22
Vr
sg15
F0.68351602554321289
sg23
g27
sg19
g20
sg14
I1
sg29
g30
sa(dp159
g28
g11
sg21
V4
sg22
Vr
sg15
F0.78039717674255371
sg23
g27
sg19
g20
sg14
I1
sg29
g30
sa(dp160
g28
g11
sg21
V4
sg22
Vr
sg15
F0.61386680603027344
sg23
g27
sg19
g20
sg14
I1
sg29
g30
sa(dp161
g28
g11
sg21
V4
sg22
Vr
sg15
F0.94801092147827148
sg23
g27
sg19
g20
sg14
I0
sg29
g30
sa(dp162
g28
g11
sg21
V4
sg22
Vr
sg15
F1.0379090309143066
sg23
g27
sg19
g20
sg14
I1
sg29
g30
sa(dp163
g28
g11
sg21
V4
sg22
Vr
sg15
F0.78040218353271484
sg23
g27
sg19
g20
sg14
I1
sg29
g30
sa(dp164
g28
g11
sg21
V4
sg22
Vr
sg15
F2.6661829948425293
sg23
g27
sg19
g20
sg14
I0
sg29
g30
sa(dp165
g28
g11
sg21
V4
sg22
Vr
sg15
F0.84711194038391113
sg23
g27
sg19
g20
sg14
I1
sg29
g30
sa(dp166
g28
g11
sg21
V4
sg22
Vr
sg15
F3.7192020416259766
sg23
g27
sg19
g20
sg14
I1
sg29
g30
sa(dp167
g28
g11
sg21
V4
sg22
Vr
sg15
F4.4322750568389893
sg23
g27
sg19
g20
sg14
I0
sg29
g30
sa(dp168
g28
g11
sg21
V4
sg22
Vr
sg15
F2.8156771659851074
sg23
g27
sg19
g20
sg14
I1
sg29
g30
sa(dp169
g28
g11
sg21
V4
sg22
Vr
sg15
F3.4876229763031006
sg23
g27
sg19
g20
sg14
I0
sg29
g30
sa(dp170
g28
g11
sg21
V4
sg22
Vr
sg15
F1.6142880916595459
sg23
g27
sg19
g20
sg14
I1
sg29
g30
sa(dp171
g28
g11
sg21
V4
sg22
Vr
sg15
F0.72989201545715332
sg23
g27
sg19
g20
sg14
I1
sg29
g30
sa(dp172
g28
g11
sg21
V4
sg22
Vr
sg15
F1.208076000213623
sg23
g27
sg19
g20
sg14
I1
sg29
g30
sa(dp173
g28
g11
sg21
V4
sg22
Vr
sg15
F0.84871602058410645
sg23
g27
sg19
g20
sg14
I1
sg29
g30
sa(dp174
g28
g11
sg21
V4
sg22
Vr
sg15
F0.80254197120666504
sg23
g27
sg19
g20
sg14
I1
sg29
g30
sa(dp175
g28
g11
sg21
V4
sg22
Vr
sg15
F1.6356220245361328
sg23
g27
sg19
g20
sg14
I1
sg29
g30
sa(dp176
g28
g11
sg21
V4
sg22
Vr
sg15
F0.89822697639465332
sg23
g27
sg19
g20
sg14
I1
sg29
g30
sa(dp177
g28
g11
sg21
V4
sg22
Vr
sg15
F0.61426782608032227
sg23
g27
sg19
g20
sg14
I1
sg29
g30
sa(dp178
g28
g11
sg21
V4
sg22
Vr
sg15
F3.1007521152496338
sg23
g27
sg19
g20
sg14
I1
sg29
g30
sa(dp179
g28
g11
sg21
V4
sg22
Vr
sg15
F1.0987718105316162
sg23
g27
sg19
g20
sg14
I1
sg29
g30
sa(dp180
g28
g11
sg21
V4
sg22
Vr
sg15
F2.6896178722381592
sg23
g27
sg19
g20
sg14
I1
sg29
g30
sa(dp181
g28
g11
sg21
V4
sg22
Vr
sg15
F0.98455715179443359
sg23
g27
sg19
g20
sg14
I1
sg29
g30
sa(dp182
g28
g11
sg21
V4
sg22
Vr
sg15
F1.8671951293945312
sg23
g27
sg19
g20
sg14
I1
sg29
g30
sa(dp183
g28
g11
sg21
V4
sg22
Vr
sg15
F1.1151180267333984
sg23
g27
sg19
g20
sg14
I1
sg29
g30
sa(dp184
g28
g11
sg21
V4
sg22
Vr
sg15
F0.76295614242553711
sg23
g27
sg19
g20
sg14
I1
sg29
g30
sa(dp185
g28
g11
sg21
V4
sg22
Vr
sg15
F0.9536440372467041
sg23
g27
sg19
g20
sg14
I1
sg29
g30
sa(dp186
g28
g11
sg21
V4
sg22
Vr
sg15
F2.8658280372619629
sg23
g27
sg19
g20
sg14
I0
sg29
g30
sa(dp187
g28
g11
sg21
V4
sg22
Vr
sg15
F1.3140239715576172
sg23
g27
sg19
g20
sg14
I1
sg29
g30
sa(dp188
g28
g11
sg21
V4
sg22
Vr
sg15
F3.1839840412139893
sg23
g27
sg19
g20
sg14
I1
sg29
g30
sa(dp189
g28
g11
sg21
V4
sg22
Vr
sg15
F0.76362419128417969
sg23
g27
sg19
g20
sg14
I1
sg29
g30
sa(dp190
g28
g11
sg21
V4
sg22
Vr
sg15
F0.71313905715942383
sg23
g27
sg19
g20
sg14
I1
sg29
g30
sa(dp191
g28
g11
sg21
V4
sg22
Vr
sg15
F1.0633139610290527
sg23
g27
sg19
g20
sg14
I1
sg29
g30
sa(dp192
g28
g11
sg21
V4
sg22
Vr
sg15
F1.4489998817443848
sg23
g27
sg19
g20
sg14
I1
sg29
g30
sa(dp193
g28
g11
sg21
V4
sg22
Vr
sg15
F2.1522829532623291
sg23
g27
sg19
g20
sg14
I1
sg29
g30
sa(dp194
g28
g11
sg21
V4
sg22
Vr
sg15
F2.2025890350341797
sg23
g27
sg19
g20
sg14
I1
sg29
g30
sa(dp195
g28
g11
sg21
V4
sg22
Vr
sg15
F1.8189589977264404
sg23
g27
sg19
g20
sg14
I1
sg29
g30
sa(dp196
g28
g11
sg21
V4
sg22
Vr
sg15
F3.2144498825073242
sg23
g27
sg19
g20
sg14
I0
sg29
g30
sa(dp197
g28
g11
sg21
V4
sg22
Vr
sg15
F3.0778629779815674
sg23
g27
sg19
g20
sg14
I0
sg29
g30
sa(dp198
g28
g11
sg21
V4
sg22
Vr
sg15
F0.752593994140625
sg23
g27
sg19
g20
sg14
I1
sg29
g30
sa(dp199
g28
g11
sg21
V4
sg22
Vr
sg15
F0.78335189819335938
sg23
g27
sg19
g20
sg14
I1
sg29
g30
sa(dp200
g28
g11
sg21
V4
sg22
Vr
sg15
F3.3013701438903809
sg23
g27
sg19
g20
sg14
I0
sg29
g30
sa(dp201
g28
g11
sg21
V4
sg22
Vr
sg15
F2.7668931484222412
sg23
g27
sg19
g20
sg14
I1
sg29
g30
sa(dp202
g28
g11
sg21
V4
sg22
Vr
sg15
F3.1340291500091553
sg23
g27
sg19
g20
sg14
I0
sg29
g30
sa(dp203
g28
g11
sg21
V4
sg22
Vr
sg15
F1.3375771045684814
sg23
g27
sg19
g20
sg14
I1
sg29
g30
sa(dp204
g28
g11
sg21
V4
sg22
Vr
sg15
F0.8467409610748291
sg23
g27
sg19
g20
sg14
I1
sg29
g30
sa(dp205
g28
g11
sg21
V4
sg22
Vr
sg15
F4.3032100200653076
sg23
g27
sg19
g20
sg14
I1
sg29
g30
sa(dp206
g28
g11
sg21
V4
sg22
Vr
sg15
F1.9671220779418945
sg23
g27
sg19
g20
sg14
I1
sg29
g30
sa(dp207
g28
g11
sg21
V4
sg22
Vr
sg15
F1.112760066986084
sg23
g27
sg19
g20
sg14
I1
sg29
g30
sa(dp208
g28
g11
sg21
V4
sg22
Vr
sg15
F0.76456999778747559
sg23
g27
sg19
g20
sg14
I1
sg29
g30
sa(dp209
g28
g11
sg21
V4
sg22
Vr
sg15
F0.81302499771118164
sg23
g27
sg19
g20
sg14
I1
sg29
g30
sa(dp210
g28
g11
sg21
V4
sg22
Vr
sg15
F0.89868807792663574
sg23
g27
sg19
g20
sg14
I1
sg29
g30
sa(dp211
g28
g11
sg21
V4
sg22
Vr
sg15
F0.93092513084411621
sg23
g27
sg19
g20
sg14
I1
sg29
g30
sa(dp212
g28
g11
sg21
V4
sg22
Vr
sg15
F0.81402492523193359
sg23
g27
sg19
g20
sg14
I1
sg29
g30
sa(dp213
g28
g11
sg21
V4
sg22
Vr
sg15
F0.81662917137145996
sg23
g27
sg19
g20
sg14
I1
sg29
g30
sa(dp214
g28
g11
sg21
V4
sg22
Vr
sg15
F0.98061800003051758
sg23
g27
sg19
g20
sg14
I0
sg29
g30
sa(dp215
g28
g11
sg21
V4
sg22
Vr
sg15
F0.71288299560546875
sg23
g27
sg19
g20
sg14
I1
sg29
g30
sa(dp216
g28
g11
sg21
V4
sg22
Vr
sg15
F1.3994519710540771
sg23
g27
sg19
g20
sg14
I1
sg29
g30
sa(dp217
g28
g11
sg21
V4
sg22
Vr
sg15
F2.8013567924499512
sg23
g27
sg19
g20
sg14
I1
sg29
g30
sa(dp218
g28
g11
sg21
V4
sg22
Vr
sg15
F2.4663901329040527
sg23
g27
sg19
g20
sg14
I1
sg29
g30
sa(dp219
g28
g11
sg21
V4
sg22
Vr
sg15
F1.3329050540924072
sg23
g27
sg19
g20
sg14
I1
sg29
g30
sa(dp220
g28
g11
sg21
V4
sg22
Vr
sg15
F2.9319930076599121
sg23
g27
sg19
g20
sg14
I0
sg29
g30
sa(dp221
g28
g11
sg21
V4
sg22
Vr
sg15
F0.79785394668579102
sg23
g27
sg19
g20
sg14
I1
sg29
g30
sa(dp222
g28
g11
sg21
V4
sg22
Vr
sg15
F1.9506299495697021
sg23
g27
sg19
g20
sg14
I1
sg29
g30
sa(dp223
g28
g11
sg21
V4
sg22
Vr
sg15
F1.3484871387481689
sg23
g27
sg19
g20
sg14
I1
sg29
g30
sa(dp224
g28
g11
sg21
V4
sg22
Vr
sg15
F0.73099207878112793
sg23
g27
sg19
g20
sg14
I1
sg29
g30
sa(dp225
g28
g11
sg21
V4
sg22
Vr
sg15
F2.4448351860046387
sg23
g27
sg19
g20
sg14
I1
sg29
g30
sa(dp226
g28
g11
sg21
V4
sg22
Vr
sg15
F1.9926879405975342
sg23
g27
sg19
g20
sg14
I1
sg29
g30
sa(dp227
g28
g11
sg21
V4
sg22
Vr
sg15
F2.405695915222168
sg23
g27
sg19
g20
sg14
I0
sg29
g30
sa(dp228
g28
g11
sg21
V4
sg22
Vr
sg15
F0.91818690299987793
sg23
g27
sg19
g20
sg14
I1
sg29
g30
sa(dp229
g28
g11
sg21
V4
sg22
Vr
sg15
F0.89857792854309082
sg23
g27
sg19
g20
sg14
I1
sg29
g30
sa(dp230
g28
g11
sg21
V4
sg22
Vr
sg15
F0.86488103866577148
sg23
g27
sg19
g20
sg14
I1
sg29
g30
sa(dp231
g28
g11
sg21
V4
sg22
Vr
sg15
F0.99691510200500488
sg23
g27
sg19
g20
sg14
I1
sg29
g30
sa(dp232
g28
g11
sg21
V4
sg22
Vr
sg15
F0.83671903610229492
sg23
g27
sg19
g20
sg14
I1
sg29
g30
sa(dp233
g28
g11
sg21
V4
sg22
Vr
sg15
F1.4997022151947021
sg23
g27
sg19
g20
sg14
I1
sg29
g30
sa(dp234
g28
g11
sg21
V4
sg22
Vr
sg15
F0.81654191017150879
sg23
g27
sg19
g20
sg14
I1
sg29
g30
sa(dp235
g28
g11
sg21
V4
sg22
Vr
sg15
F2.6684510707855225
sg23
g27
sg19
g20
sg14
I1
sg29
g30
sa(dp236
g28
g11
sg21
V4
sg22
Vr
sg15
F0.68095707893371582
sg23
g27
sg19
g20
sg14
I1
sg29
g30
sa(dp237
g28
g11
sg21
V4
sg22
Vr
sg15
F3.3449640274047852
sg23
g27
sg19
g20
sg14
I0
sg29
g30
sa(dp238
g28
g11
sg21
V4
sg22
Vr
sg15
F1.806920051574707
sg23
g27
sg19
g20
sg14
I1
sg29
g30
sa(dp239
g28
g11
sg21
V4
sg22
Vr
sg15
F1.0211749076843262
sg23
g27
sg19
g20
sg14
I1
sg29
g30
sa(dp240
g28
g11
sg21
V4
sg22
Vr
sg15
F0.8994300365447998
sg23
g27
sg19
g20
sg14
I1
sg29
g30
sa(dp241
g28
g11
sg21
V4
sg22
Vr
sg15
F1.5171151161193848
sg23
g27
sg19
g20
sg14
I0
sg29
g30
sa(dp242
g28
g11
sg21
V4
sg22
Vr
sg15
F1.1308860778808594
sg23
g27
sg19
g20
sg14
I1
sg29
g30
sa(dp243
g28
g11
sg21
V4
sg22
Vr
sg15
F1.0811100006103516
sg23
g27
sg19
g20
sg14
I1
sg29
g30
sa(dp244
g28
g11
sg21
V4
sg22
Vr
sg15
F1.5210070610046387
sg23
g27
sg19
g20
sg14
I1
sg29
g30
sa(dp245
g28
g11
sg21
V4
sg22
Vr
sg15
F1.139307975769043
sg23
g27
sg19
g20
sg14
I1
sg29
g30
sa(dp246
g28
g11
sg21
V4
sg22
Vr
sg15
F1.0149400234222412
sg23
g27
sg19
g20
sg14
I1
sg29
g30
sa(dp247
g28
g11
sg21
V4
sg22
Vr
sg15
F0.84947085380554199
sg23
g27
sg19
g20
sg14
I1
sg29
g30
sa(dp248
g28
g11
sg21
V4
sg22
Vr
sg15
F0.78099894523620605
sg23
g27
sg19
g20
sg14
I1
sg29
g30
sa(dp249
g28
g11
sg21
V4
sg22
Vr
sg15
F2.9339971542358398
sg23
g27
sg19
g20
sg14
I1
sg29
g30
sa(dp250
g28
g11
sg21
V4
sg22
Vr
sg15
F2.8958899974822998
sg23
g27
sg19
g20
sg14
I1
sg29
g30
sa(dp251
g28
g11
sg21
V4
sg22
Vr
sg15
F1.5345659255981445
sg23
g27
sg19
g20
sg14
I1
sg29
g30
sa(dp252
g28
g11
sg21
V4
sg22
Vr
sg15
F1.9991781711578369
sg23
g27
sg19
g20
sg14
I1
sg29
g30
sa(dp253
g28
g11
sg21
V4
sg22
Vr
sg15
F1.4501111507415771
sg23
g27
sg19
g20
sg14
I1
sg29
g30
sa(dp254
g28
g11
sg21
V4
sg22
Vr
sg15
F2.2000839710235596
sg23
g27
sg19
g20
sg14
I1
sg29
g30
sa(dp255
g28
g11
sg21
V4
sg22
Vr
sg15
F1.1149361133575439
sg23
g27
sg19
g20
sg14
I1
sg29
g30
sa(dp256
g28
g11
sg21
V4
sg22
Vr
sg15
F0.87798094749450684
sg23
g27
sg19
g20
sg14
I1
sg29
g30
sa(dp257
g28
g11
sg21
V4
sg22
Vr
sg15
F0.88818907737731934
sg23
g27
sg19
g20
sg14
I1
sg29
g30
sa(dp258
g28
g11
sg21
V4
sg22
Vr
sg15
F0.82985281944274902
sg23
g27
sg19
g20
sg14
I1
sg29
g30
sa(dp259
g28
g11
sg21
V4
sg22
Vr
sg15
F2.0522539615631104
sg23
g27
sg19
g20
sg14
I0
sg29
g30
sa(dp260
g28
g11
sg21
V4
sg22
Vr
sg15
F3.3004240989685059
sg23
g27
sg19
g20
sg14
I0
sg29
g30
sa(dp261
g28
g11
sg21
V4
sg22
Vr
sg15
F2.8181219100952148
sg23
g27
sg19
g20
sg14
I1
sg29
g30
sa(dp262
g28
g11
sg21
V4
sg22
Vr
sg15
F0.84486603736877441
sg23
g27
sg19
g20
sg14
I1
sg29
g30
sa(dp263
g28
g11
sg21
V4
sg22
Vr
sg15
F2.6329450607299805
sg23
g27
sg19
g20
sg14
I1
sg29
g30
sa(dp264
g28
g11
sg21
V4
sg22
Vr
sg15
F0.82926797866821289
sg23
g27
sg19
g20
sg14
I1
sg29
g30
sa(dp265
g28
g11
sg21
V4
sg22
Vr
sg15
F0.83634305000305176
sg23
g27
sg19
g20
sg14
I1
sg29
g30
sa(dp266
g28
g11
sg21
V4
sg22
Vr
sg15
F1.7990400791168213
sg23
g27
sg19
g20
sg14
I1
sg29
g30
sa(dp267
g28
g11
sg21
V4
sg22
Vr
sg15
F2.6868610382080078
sg23
g27
sg19
g20
sg14
I1
sg29
g30
sa(dp268
g28
g11
sg21
V4
sg22
Vr
sg15
F1.1158180236816406
sg23
g27
sg19
g20
sg14
I1
sg29
g30
sa(dp269
g28
g11
sg21
V4
sg22
Vr
sg15
F2.563878059387207
sg23
g27
sg19
g20
sg14
I1
sg29
g30
sa(dp270
g28
g11
sg21
V4
sg22
Vr
sg15
F2.3847060203552246
sg23
g27
sg19
g20
sg14
I1
sg29
g30
sa(dp271
g28
g11
sg21
V4
sg22
Vr
sg15
F2.6517179012298584
sg23
g27
sg19
g20
sg14
I0
sg29
g30
sa(dp272
g28
g11
sg21
V4
sg22
Vr
sg15
F2.5711870193481445
sg23
g27
sg19
g20
sg14
I0
sg29
g30
sa(dp273
g28
g11
sg21
V4
sg22
Vr
sg15
F2.4532320499420166
sg23
g27
sg19
g20
sg14
I1
sg29
g30
sa(dp274
g28
g11
sg21
V4
sg22
Vr
sg15
F1.031217098236084
sg23
g27
sg19
g20
sg14
I1
sg29
g30
sa(dp275
g28
g11
sg21
V4
sg22
Vr
sg15
F1.3821370601654053
sg23
g27
sg19
g20
sg14
I1
sg29
g30
sa(dp276
g28
g11
sg21
V4
sg22
Vr
sg15
F0.9298701286315918
sg23
g27
sg19
g20
sg14
I1
sg29
g30
sa(dp277
g28
g11
sg21
V4
sg22
Vr
sg15
F2.591533899307251
sg23
g27
sg19
g20
sg14
I0
sg29
g30
sa(dp278
g28
g11
sg21
V4
sg22
Vr
sg15
F2.9722330570220947
sg23
g27
sg19
g20
sg14
I0
sg29
g30
sa(dp279
g28
g11
sg21
V4
sg22
Vr
sg15
F0.81742000579833984
sg23
g27
sg19
g20
sg14
I1
sg29
g30
sa(dp280
g28
g11
sg21
V4
sg22
Vr
sg15
F1.3487648963928223
sg23
g27
sg19
g20
sg14
I0
sg29
g30
sa(dp281
g28
g11
sg21
V4
sg22
Vr
sg15
F1.298677921295166
sg23
g27
sg19
g20
sg14
I1
sg29
g30
sa(dp282
g28
g11
sg21
V4
sg22
Vr
sg15
F0.76324200630187988
sg23
g27
sg19
g20
sg14
I1
sg29
g30
sa(dp283
g28
g11
sg21
V4
sg22
Vr
sg15
F1.7891280651092529
sg23
g27
sg19
g20
sg14
I0
sg29
g30
sa(dp284
g28
g11
sg21
V4
sg22
Vr
sg15
F3.2073929309844971
sg23
g27
sg19
g20
sg14
I0
sg29
g30
sa(dp285
g28
g11
sg21
V4
sg22
Vr
sg15
F2.3360540866851807
sg23
g27
sg19
g20
sg14
I0
sg29
g30
sa(dp286
g28
g11
sg21
V4
sg22
Vr
sg15
F3.0518450736999512
sg23
g27
sg19
g20
sg14
I0
sg29
g30
sa(dp287
g28
g11
sg21
V4
sg22
Vr
sg15
F0.94757699966430664
sg23
g27
sg19
g20
sg14
I1
sg29
g30
sa(dp288
g28
g11
sg21
V4
sg22
Vr
sg15
F0.74620604515075684
sg23
g27
sg19
g20
sg14
I1
sg29
g30
sa(dp289
g28
g11
sg21
V4
sg22
Vr
sg15
F1.3812341690063477
sg23
g27
sg19
g20
sg14
I1
sg29
g30
sa(dp290
g28
g11
sg21
V4
sg22
Vr
sg15
F3.485231876373291
sg23
g27
sg19
g20
sg14
I1
sg29
g30
sa(dp291
g28
g11
sg21
V4
sg22
Vr
sg15
F3.1868000030517578
sg23
g27
sg19
g20
sg14
I1
sg29
g30
sa(dp292
g28
g11
sg21
V4
sg22
Vr
sg15
F2.1007130146026611
sg23
g27
sg19
g20
sg14
I1
sg29
g30
sa(dp293
g28
g11
sg21
V4
sg22
Vr
sg15
F1.4324240684509277
sg23
g27
sg19
g20
sg14
I1
sg29
g30
sa(dp294
g28
g11
sg21
V4
sg22
Vr
sg15
F1.5881071090698242
sg23
g27
sg19
g20
sg14
I1
sg29
g30
sa(dp295
g28
g11
sg21
V4
sg22
Vr
sg15
F0.87986397743225098
sg23
g27
sg19
g20
sg14
I1
sg29
g30
sa(dp296
g28
g11
sg21
V4
sg22
Vr
sg15
F0.99920511245727539
sg23
g27
sg19
g20
sg14
I1
sg29
g30
sa(dp297
g28
g11
sg21
V4
sg22
Vr
sg15
F0.76709413528442383
sg23
g27
sg19
g20
sg14
I1
sg29
g30
sa(dp298
g28
g11
sg21
V4
sg22
Vr
sg15
F2.382404088973999
sg23
g27
sg19
g20
sg14
I0
sg29
g30
sa(dp299
g28
g11
sg21
V4
sg22
Vr
sg15
F2.4155750274658203
sg23
g27
sg19
g20
sg14
I0
sg29
g30
sa(dp300
g28
g11
sg21
V4
sg22
Vr
sg15
F3.5096180438995361
sg23
g27
sg19
g20
sg14
I0
sg29
g30
sa(dp301
g28
g11
sg21
V4
sg22
Vr
sg15
F1.1149778366088867
sg23
g27
sg19
g20
sg14
I1
sg29
g30
sa(dp302
g28
g11
sg21
V4
sg22
Vr
sg15
F1.8540840148925781
sg23
g27
sg19
g20
sg14
I1
sg29
g30
sa(dp303
g28
g11
sg21
V4
sg22
Vr
sg15
F1.4320230484008789
sg23
g27
sg19
g20
sg14
I1
sg29
g30
sa(dp304
g28
g11
sg21
V4
sg22
Vr
sg15
F0.91369295120239258
sg23
g27
sg19
g20
sg14
I1
sg29
g30
sa(dp305
g28
g11
sg21
V4
sg22
Vr
sg15
F0.68025493621826172
sg23
g27
sg19
g20
sg14
I1
sg29
g30
sa(dp306
g28
g11
sg21
V4
sg22
Vr
sg15
F0.67885303497314453
sg23
g27
sg19
g20
sg14
I1
sg29
g30
sa(dp307
g28
g11
sg21
V4
sg22
Vr
sg15
F1.700186014175415
sg23
g27
sg19
g20
sg14
I1
sg29
g30
sa(dp308
g28
g11
sg21
V4
sg22
Vr
sg15
F1.8775179386138916
sg23
g27
sg19
g20
sg14
I1
sg29
g30
sa(dp309
g28
g11
sg21
V4
sg22
Vr
sg15
F0.94723606109619141
sg23
g27
sg19
g20
sg14
I1
sg29
g30
sa(dp310
g28
g11
sg21
V4
sg22
Vr
sg15
F2.6161911487579346
sg23
g27
sg19
g20
sg14
I1
sg29
g30
sa(dp311
g28
g11
sg21
V4
sg22
Vr
sg15
F0.84710097312927246
sg23
g27
sg19
g20
sg14
I1
sg29
g30
sa(dp312
g28
g11
sg21
V4
sg22
Vr
sg15
F1.9339339733123779
sg23
g27
sg19
g20
sg14
I0
sg29
g30
sa(dp313
g28
g11
sg21
V4
sg22
Vr
sg15
F0.67959499359130859
sg23
g27
sg19
g20
sg14
I1
sg29
g30
sa(dp314
g28
g11
sg21
V4
sg22
Vr
sg15
F3.7693569660186768
sg23
g27
sg19
g20
sg14
I0
sg29
g30
sa(dp315
g28
g11
sg21
V4
sg22
Vr
sg15
F0.8314979076385498
sg23
g27
sg19
g20
sg14
I1
sg29
g30
sa(dp316
g28
g11
sg21
V4
sg22
Vr
sg15
F2.6005551815032959
sg23
g27
sg19
g20
sg14
I1
sg29
g30
sa(dp317
g28
g11
sg21
V4
sg22
Vr
sg15
F0.78033304214477539
sg23
g27
sg19
g20
sg14
I1
sg29
g30
sa(dp318
g28
g11
sg21
V4
sg22
Vr
sg15
F2.577225923538208
sg23
g27
sg19
g20
sg14
I0
sg29
g30
sa(dp319
g28
g11
sg21
V4
sg22
Vr
sg15
F2.6709060668945312
sg23
g27
sg19
g20
sg14
I0
sg29
g30
sa(dp320
g28
g11
sg21
V4
sg22
Vr
sg15
F0.8999478816986084
sg23
g27
sg19
g20
sg14
I1
sg29
g30
sa(dp321
g28
g11
sg21
V4
sg22
Vr
sg15
F1.0486288070678711
sg23
g27
sg19
g20
sg14
I1
sg29
g30
sa(dp322
g28
g11
sg21
V4
sg22
Vr
sg15
F0.98142790794372559
sg23
g27
sg19
g20
sg14
I1
sg29
g30
sa(dp323
g28
g11
sg21
V4
sg22
Vr
sg15
F1.0636029243469238
sg23
g27
sg19
g20
sg14
I1
sg29
g30
sa(dp324
g28
g11
sg21
V4
sg22
Vr
sg15
F3.0910370349884033
sg23
g27
sg19
g20
sg14
I0
sg29
g30
sa(dp325
g28
g11
sg21
V4
sg22
Vr
sg15
F0.85273003578186035
sg23
g27
sg19
g20
sg14
I1
sg29
g30
sa(dp326
g28
g11
sg21
V4
sg22
Vr
sg15
F0.87899017333984375
sg23
g27
sg19
g20
sg14
I1
sg29
g30
sa(dp327
g28
g11
sg21
V4
sg22
Vr
sg15
F2.467689037322998
sg23
g27
sg19
g20
sg14
I0
sg29
g30
sa(dp328
g28
g11
sg21
V4
sg22
Vr
sg15
F2.3331248760223389
sg23
g27
sg19
g20
sg14
I0
sg29
g30
sa(dp329
g28
g11
sg21
V4
sg22
Vr
sg15
F0.87567496299743652
sg23
g27
sg19
g20
sg14
I1
sg29
g30
sa(dp330
g28
g11
sg21
V4
sg22
Vr
sg15
F3.0240409374237061
sg23
g27
sg19
g20
sg14
I1
sg29
g30
sa(dp331
g28
g11
sg21
V4
sg22
Vr
sg15
F0.68742799758911133
sg23
g27
sg19
g20
sg14
I1
sg29
g30
sa(dp332
g28
g11
sg21
V4
sg22
Vr
sg15
F1.0341088771820068
sg23
g27
sg19
g20
sg14
I1
sg29
g30
sa(dp333
g28
g11
sg21
V4
sg22
Vr
sg15
F2.3510830402374268
sg23
g27
sg19
g20
sg14
I0
sg29
g30
sa(dp334
g28
g11
sg21
V4
sg22
Vr
sg15
F1.214108943939209
sg23
g27
sg19
g20
sg14
I1
sg29
g30
sa(dp335
g28
g11
sg21
V4
sg22
Vr
sg15
F1.2162559032440186
sg23
g27
sg19
g20
sg14
I1
sg29
g30
sa(dp336
g28
g11
sg21
V4
sg22
Vr
sg15
F2.5501449108123779
sg23
g27
sg19
g20
sg14
I0
sg29
g30
sa(dp337
g28
g11
sg21
V4
sg22
Vr
sg15
F1.0310399532318115
sg23
g27
sg19
g20
sg14
I1
sg29
g30
sa(dp338
g28
g11
sg21
V4
sg22
Vr
sg15
F0.74997901916503906
sg23
g27
sg19
g20
sg14
I1
sg29
g30
sa(dp339
g28
g11
sg21
V4
sg22
Vr
sg15
F1.0323560237884521
sg23
g27
sg19
g20
sg14
I1
sg29
g30
sa(dp340
g28
g11
sg21
V4
sg22
Vr
sg15
F1.4316799640655518
sg23
g27
sg19
g20
sg14
I1
sg29
g30
sa(dp341
g28
g11
sg21
V4
sg22
Vr
sg15
F2.7333791255950928
sg23
g27
sg19
g20
sg14
I0
sg29
g30
sa(dp342
g28
g11
sg21
V4
sg22
Vr
sg15
F1.1480810642242432
sg23
g27
sg19
g20
sg14
I1
sg29
g30
sa(dp343
g28
g11
sg21
V4
sg22
Vr
sg15
F0.66285896301269531
sg23
g27
sg19
g20
sg14
I1
sg29
g30
sa(dp344
g28
g11
sg21
V4
sg22
Vr
sg15
F0.73071599006652832
sg23
g27
sg19
g20
sg14
I1
sg29
g30
sa(dp345
g28
g11
sg21
V4
sg22
Vr
sg15
F0.79926085472106934
sg23
g27
sg19
g20
sg14
I1
sg29
g30
sa(dp346
g28
g11
sg21
V4
sg22
Vr
sg15
F0.98015618324279785
sg23
g27
sg19
g20
sg14
I1
sg29
g30
sa(dp347
g28
g11
sg21
V4
sg22
Vr
sg15
F0.74678301811218262
sg23
g27
sg19
g20
sg14
I1
sg29
g30
sa(dp348
g28
g11
sg21
V4
sg22
Vr
sg15
F2.1058077812194824
sg23
g27
sg19
g20
sg14
I1
sg29
g30
sa(dp349
g28
g11
sg21
V4
sg22
Vr
sg15
F0.99755597114562988
sg23
g27
sg19
g20
sg14
I1
sg29
g30
sa(dp350
g28
g11
sg21
V4
sg22
Vr
sg15
F0.94814014434814453
sg23
g27
sg19
g20
sg14
I1
sg29
g30
sa(dp351
g28
g11
sg21
V4
sg22
Vr
sg15
F2.5197238922119141
sg23
g27
sg19
g20
sg14
I1
sg29
g30
sa(dp352
g28
g11
sg21
V4
sg22
Vr
sg15
F0.81487178802490234
sg23
g27
sg19
g20
sg14
I1
sg29
g30
sa(dp353
g28
g11
sg21
V4
sg22
Vr
sg15
F1.0474128723144531
sg23
g27
sg19
g20
sg14
I1
sg29
g30
sa(dp354
g28
g11
sg21
V4
sg22
Vr
sg15
F0.93220019340515137
sg23
g27
sg19
g20
sg14
I1
sg29
g30
sa(dp355
g28
g11
sg21
V4
sg22
Vr
sg15
F0.73787903785705566
sg23
g27
sg19
g20
sg14
I1
sg29
g30
sa(dp356
g28
g11
sg21
V4
sg22
Vr
sg15
F2.9226360321044922
sg23
g27
sg19
g20
sg14
I1
sg29
g30
sa(dp357
g28
g11
sg21
V4
sg22
Vr
sg15
F1.550246000289917
sg23
g27
sg19
g20
sg14
I1
sg29
g30
sa(dp358
g28
g11
sg21
V4
sg22
Vr
sg15
F1.029839038848877
sg23
g27
sg19
g20
sg14
I1
sg29
g30
sa(dp359
g28
g11
sg21
V4
sg22
Vr
sg15
F1.4484081268310547
sg23
g27
sg19
g20
sg14
I1
sg29
g30
sa(dp360
g28
g11
sg21
V4
sg22
Vr
sg15
F3.5028049945831299
sg23
g27
sg19
g20
sg14
I0
sg29
g30
sa(dp361
g28
g11
sg21
V4
sg22
Vr
sg15
F0.98079705238342285
sg23
g27
sg19
g20
sg14
I1
sg29
g30
sa(dp362
g28
g11
sg21
V4
sg22
Vr
sg15
F2.6286780834197998
sg23
g27
sg19
g20
sg14
I1
sg29
g30
sa(dp363
g28
g11
sg21
V4
sg22
Vr
sg15
F1.2133169174194336
sg23
g27
sg19
g20
sg14
I1
sg29
g30
sa(dp364
g28
g11
sg21
V4
sg22
Vr
sg15
F2.6668379306793213
sg23
g27
sg19
g20
sg14
I1
sg29
g30
sa(dp365
g28
g11
sg21
V4
sg22
Vr
sg15
F0.97951889038085938
sg23
g27
sg19
g20
sg14
I1
sg29
g30
sa(dp366
g28
g11
sg21
V4
sg22
Vr
sg15
F2.7841808795928955
sg23
g27
sg19
g20
sg14
I0
sg29
g30
sa(dp367
g28
g11
sg21
V4
sg22
Vr
sg15
F2.0877768993377686
sg23
g27
sg19
g20
sg14
I0
sg29
g30
sa(dp368
g28
g11
sg21
V4
sg22
Vr
sg15
F0.75148510932922363
sg23
g27
sg19
g20
sg14
I1
sg29
g30
sa(dp369
g28
g11
sg21
V4
sg22
Vr
sg15
F2.8688721656799316
sg23
g27
sg19
g20
sg14
I1
sg29
g30
sa(dp370
g28
g11
sg21
V4
sg22
Vr
sg15
F1.5657110214233398
sg23
g27
sg19
g20
sg14
I1
sg29
g30
sa(dp371
g28
g11
sg21
V4
sg22
Vr
sg15
F1.2323291301727295
sg23
g27
sg19
g20
sg14
I1
sg29
g30
sa(dp372
g28
g11
sg21
V4
sg22
Vr
sg15
F2.7407941818237305
sg23
g27
sg19
g20
sg14
I1
sg29
g30
sa(dp373
g28
g11
sg21
V4
sg22
Vr
sg15
F1.3495988845825195
sg23
g27
sg19
g20
sg14
I1
sg29
g30
sa(dp374
g28
g11
sg21
V4
sg22
Vr
sg15
F0.87988495826721191
sg23
g27
sg19
g20
sg14
I1
sg29
g30
sa(dp375
g28
g11
sg21
V4
sg22
Vr
sg15
F0.83243703842163086
sg23
g27
sg19
g20
sg14
I1
sg29
g30
sa(dp376
g28
g11
sg21
V4
sg22
Vr
sg15
F1.4989111423492432
sg23
g27
sg19
g20
sg14
I1
sg29
g30
sa(dp377
g28
g11
sg21
V4
sg22
Vr
sg15
F0.89802694320678711
sg23
g27
sg19
g20
sg14
I1
sg29
g30
sa(dp378
g28
g11
sg21
V4
sg22
Vr
sg15
F2.6009838581085205
sg23
g27
sg19
g20
sg14
I1
sg29
g30
sa(dp379
g28
g11
sg21
V4
sg22
Vr
sg15
F1.0147528648376465
sg23
g27
sg19
g20
sg14
I1
sg29
g30
sa(dp380
g28
g11
sg21
V4
sg22
Vr
sg15
F2.9548609256744385
sg23
g27
sg19
g20
sg14
I1
sg29
g30
sa(dp381
g28
g11
sg21
V4
sg22
Vr
sg15
F1.115656852722168
sg23
g27
sg19
g20
sg14
I1
sg29
g30
sa(dp382
g28
g11
sg21
V4
sg22
Vr
sg15
F2.81722092628479
sg23
g27
sg19
g20
sg14
I0
sg29
g30
sa(dp383
g28
g11
sg21
V4
sg22
Vr
sg15
F0.84515380859375
sg23
g27
sg19
g20
sg14
I1
sg29
g30
sa(dp384
g28
g11
sg21
V4
sg22
Vr
sg15
F2.1746351718902588
sg23
g27
sg19
g20
sg14
I1
sg29
g30
sa(dp385
g28
g11
sg21
V4
sg22
Vr
sg15
F2.7010891437530518
sg23
g27
sg19
g20
sg14
I0
sg29
g30
sa(dp386
g28
g11
sg21
V4
sg22
Vr
sg15
F2.5186359882354736
sg23
g27
sg19
g20
sg14
I0
sg29
g30
sa(dp387
g28
g11
sg21
V4
sg22
Vr
sg15
F2.7835159301757812
sg23
g27
sg19
g20
sg14
I1
sg29
g30
sa(dp388
g28
g11
sg21
V4
sg22
Vr
sg15
F2.5660579204559326
sg23
g27
sg19
g20
sg14
I0
sg29
g30
sa(dp389
g28
g11
sg21
V4
sg22
Vr
sg15
F3.0397231578826904
sg23
g27
sg19
g20
sg14
I1
sg29
g30
sa(dp390
g28
g11
sg21
V4
sg22
Vr
sg15
F1.0629870891571045
sg23
g27
sg19
g20
sg14
I1
sg29
g30
sa(dp391
g28
g11
sg21
V4
sg22
Vr
sg15
F2.4349761009216309
sg23
g27
sg19
g20
sg14
I0
sg29
g30
sa(dp392
g28
g11
sg21
V4
sg22
Vr
sg15
F2.6856410503387451
sg23
g27
sg19
g20
sg14
I0
sg29
g30
sa(dp393
g28
g11
sg21
V4
sg22
Vr
sg15
F2.6511940956115723
sg23
g27
sg19
g20
sg14
I0
sg29
g30
sa(dp394
g28
g11
sg21
V4
sg22
Vr
sg15
F1.3664779663085938
sg23
g27
sg19
g20
sg14
I1
sg29
g30
sa(dp395
g28
g11
sg21
V4
sg22
Vr
sg15
F1.8255279064178467
sg23
g27
sg19
g20
sg14
I1
sg29
g30
sa(dp396
g28
g11
sg21
V4
sg22
Vr
sg15
F2.9244771003723145
sg23
g27
sg19
g20
sg14
I0
sg29
g30
sa(dp397
g28
g11
sg21
V4
sg22
Vr
sg15
F2.4029459953308105
sg23
g27
sg19
g20
sg14
I0
sg29
g30
sa(dp398
g28
g11
sg21
V4
sg22
Vr
sg15
F2.5334670543670654
sg23
g27
sg19
g20
sg14
I1
sg29
g30
sa(dp399
g28
g11
sg21
V4
sg22
Vr
sg15
F2.4349269866943359
sg23
g27
sg19
g20
sg14
I1
sg29
g30
sa(dp400
g28
g11
sg21
V4
sg22
Vr
sg15
F1.2495579719543457
sg23
g27
sg19
g20
sg14
I1
sg29
g30
sa(dp401
g28
g11
sg21
V4
sg22
Vr
sg15
F3.4324028491973877
sg23
g27
sg19
g20
sg14
I0
sg29
g30
sa(dp402
g28
g11
sg21
V4
sg22
Vr
sg15
F2.3848719596862793
sg23
g27
sg19
g20
sg14
I0
sg29
g30
sa(dp403
g28
g11
sg21
V4
sg22
Vr
sg15
F1.0139658451080322
sg23
g27
sg19
g20
sg14
I1
sg29
g30
sa(dp404
g28
g11
sg21
V4
sg22
Vr
sg15
F2.5162560939788818
sg23
g27
sg19
g20
sg14
I1
sg29
g30
sa(dp405
g28
g11
sg21
V4
sg22
Vr
sg15
F1.0765731334686279
sg23
g27
sg19
g20
sg14
I1
sg29
g30
sa(dp406
g28
g11
sg21
V4
sg22
Vr
sg15
F2.4056069850921631
sg23
g27
sg19
g20
sg14
I1
sg29
g30
sa(dp407
g28
g11
sg21
V4
sg22
Vr
sg15
F0.98030209541320801
sg23
g27
sg19
g20
sg14
I1
sg29
g30
sa(dp408
g28
g11
sg21
V4
sg22
Vr
sg15
F1.0845990180969238
sg23
g27
sg19
g20
sg14
I1
sg29
g30
sa(dp409
g28
g11
sg21
V4
sg22
Vr
sg15
F2.5495679378509521
sg23
g27
sg19
g20
sg14
I1
sg29
g30
sa(dp410
g28
g11
sg21
V4
sg22
Vr
sg15
F2.3496050834655762
sg23
g27
sg19
g20
sg14
I0
sg29
g30
sa(dp411
g28
g11
sg21
V4
sg22
Vr
sg15
F1.1128129959106445
sg23
g27
sg19
g20
sg14
I1
sg29
g30
sa(dp412
g28
g11
sg21
V4
sg22
Vr
sg15
F2.4227948188781738
sg23
g27
sg19
g20
sg14
I1
sg29
g30
sa(dp413
g28
g11
sg21
V4
sg22
Vr
sg15
F1.5341191291809082
sg23
g27
sg19
g20
sg14
I1
sg29
g30
sa(dp414
g28
g11
sg21
V4
sg22
Vr
sg15
F1.6767289638519287
sg23
g27
sg19
g20
sg14
I1
sg29
g30
sa(dp415
g28
g11
sg21
V4
sg22
Vr
sg15
F0.94681406021118164
sg23
g27
sg19
g20
sg14
I1
sg29
g30
sa(dp416
g28
g11
sg21
V4
sg22
Vr
sg15
F1.0913970470428467
sg23
g27
sg19
g20
sg14
I1
sg29
g30
sa(dp417
g28
g11
sg21
V4
sg22
Vr
sg15
F0.91234302520751953
sg23
g27
sg19
g20
sg14
I1
sg29
g30
sa(dp418
g28
g11
sg21
V4
sg22
Vr
sg15
F1.5850470066070557
sg23
g27
sg19
g20
sg14
I1
sg29
g30
sa(dp419
g28
g11
sg21
V4
sg22
Vr
sg15
F2.264603853225708
sg23
g27
sg19
g20
sg14
I1
sg29
g30
sa(dp420
g28
g11
sg21
V4
sg22
Vr
sg15
F1.0482511520385742
sg23
g27
sg19
g20
sg14
I1
sg29
g30
sa(dp421
g28
g11
sg21
V4
sg22
Vr
sg15
F1.1808149814605713
sg23
g27
sg19
g20
sg14
I1
sg29
g30
sa(dp422
g28
g11
sg21
V4
sg22
Vr
sg15
F0.81267809867858887
sg23
g27
sg19
g20
sg14
I1
sg29
g30
sa(dp423
g28
g11
sg21
V4
sg22
Vr
sg15
F1.0390260219573975
sg23
g27
sg19
g20
sg14
I1
sg29
g30
sa(dp424
g28
g11
sg21
V4
sg22
Vr
sg15
F0.79511713981628418
sg23
g27
sg19
g20
sg14
I1
sg29
g30
sa(dp425
g28
g11
sg21
V4
sg22
Vr
sg15
F1.3172130584716797
sg23
g27
sg19
g20
sg14
I1
sg29
g30
sa(dp426
g28
g11
sg21
V4
sg22
Vr
sg15
F3.4377329349517822
sg23
g27
sg19
g20
sg14
I0
sg29
g30
sa(dp427
g28
g11
sg21
V4
sg22
Vr
sg15
F2.8634729385375977
sg23
g27
sg19
g20
sg14
I1
sg29
g30
sa(dp428
g28
g11
sg21
V4
sg22
Vr
sg15
F2.056117057800293
sg23
g27
sg19
g20
sg14
I0
sg29
g30
sa(dp429
g28
g11
sg21
V4
sg22
Vr
sg15
F2.550119161605835
sg23
g27
sg19
g20
sg14
I0
sg29
g30
sa(dp430
g28
g11
sg21
V4
sg22
Vr
sg15
F1.4536700248718262
sg23
g27
sg19
g20
sg14
I1
sg29
g30
sa(dp431
g28
g11
sg21
V4
sg22
Vr
sg15
F2.8194789886474609
sg23
g27
sg19
g20
sg14
I0
sg29
g30
sa(dp432
g28
g11
sg21
V4
sg22
Vr
sg15
F1.1317119598388672
sg23
g27
sg19
g20
sg14
I1
sg29
g30
sa(dp433
g28
g11
sg21
V4
sg22
Vr
sg15
F1.1133968830108643
sg23
g27
sg19
g20
sg14
I1
sg29
g30
sa(dp434
g28
g11
sg21
V4
sg22
Vr
sg15
F1.05246901512146
sg23
g27
sg19
g20
sg14
I1
sg29
g30
sa(dp435
g28
g11
sg21
V4
sg22
Vr
sg15
F1.0154151916503906
sg23
g27
sg19
g20
sg14
I1
sg29
g30
sa(dp436
g28
g11
sg21
V4
sg22
Vr
sg15
F1.1159350872039795
sg23
g27
sg19
g20
sg14
I1
sg29
g30
sa(dp437
g28
g11
sg21
V4
sg22
Vr
sg15
F2.1020908355712891
sg23
g27
sg19
g20
sg14
I1
sg29
g30
sa(dp438
g28
g11
sg21
V4
sg22
Vr
sg15
F2.2832977771759033
sg23
g27
sg19
g20
sg14
I0
sg29
g30
sa(dp439
g28
g11
sg21
V4
sg22
Vr
sg15
F1.0133180618286133
sg23
g27
sg19
g20
sg14
I1
sg29
g30
sa(dp440
g28
g11
sg21
V4
sg22
Vr
sg15
F1.9671862125396729
sg23
g27
sg19
g20
sg14
I0
sg29
g30
sa(dp441
g28
g11
sg21
V4
sg22
Vr
sg15
F3.1585819721221924
sg23
g27
sg19
g20
sg14
I1
sg29
g30
sa(dp442
g28
g11
sg21
V4
sg22
Vr
sg15
F2.6885600090026855
sg23
g27
sg19
g20
sg14
I1
sg29
g30
sa(dp443
g28
g11
sg21
V4
sg22
Vr
sg15
F1.9843649864196777
sg23
g27
sg19
g20
sg14
I0
sg29
g30
sa(dp444
g28
g11
sg21
V4
sg22
Vr
sg15
F1.5997309684753418
sg23
g27
sg19
g20
sg14
I1
sg29
g30
sa(dp445
g28
g11
sg21
V4
sg22
Vr
sg15
F2.4333870410919189
sg23
g27
sg19
g20
sg14
I1
sg29
g30
sa(dp446
g28
g11
sg21
V4
sg22
Vr
sg15
F2.7359077930450439
sg23
g27
sg19
g20
sg14
I1
sg29
g30
sa(dp447
g28
g11
sg21
V4
sg22
Vr
sg15
F3.01786208152771
sg23
g27
sg19
g20
sg14
I1
sg29
g30
sa(dp448
g28
g11
sg21
V4
sg22
Vr
sg15
F3.1353662014007568
sg23
g27
sg19
g20
sg14
I1
sg29
g30
sa(dp449
g28
g11
sg21
V4
sg22
Vr
sg15
F2.6004040241241455
sg23
g27
sg19
g20
sg14
I0
sg29
g30
sa(dp450
g28
g11
sg21
V4
sg22
Vr
sg15
F1.632457971572876
sg23
g27
sg19
g20
sg14
I1
sg29
g30
sa(dp451
g28
g11
sg21
V4
sg22
Vr
sg15
F1.1200141906738281
sg23
g27
sg19
g20
sg14
I1
sg29
g30
sa(dp452
g28
g11
sg21
V4
sg22
Vr
sg15
F1.0495421886444092
sg23
g27
sg19
g20
sg14
I1
sg29
g30
sa(dp453
g28
g11
sg21
V4
sg22
Vr
sg15
F1.0633811950683594
sg23
g27
sg19
g20
sg14
I1
sg29
g30
sa(dp454
g28
g11
sg21
V4
sg22
Vr
sg15
F3.2037649154663086
sg23
g27
sg19
g20
sg14
I1
sg29
g30
sa(dp455
g28
g11
sg21
V4
sg22
Vr
sg15
F1.1493527889251709
sg23
g27
sg19
g20
sg14
I1
sg29
g30
sa(dp456
g28
g11
sg21
V4
sg22
Vr
sg15
F3.6854829788208008
sg23
g27
sg19
g20
sg14
I1
sg29
g30
sa(dp457
g28
g11
sg21
V4
sg22
Vr
sg15
F2.6416609287261963
sg23
g27
sg19
g20
sg14
I0
sg29
g30
sa(dp458
g28
g11
sg21
V4
sg22
Vr
sg15
F2.5731770992279053
sg23
g27
sg19
g20
sg14
I0
sg29
g30
sa(dp459
g28
g11
sg21
V4
sg22
Vr
sg15
F2.5530071258544922
sg23
g27
sg19
g20
sg14
I0
sg29
g30
sa(dp460
g28
g11
sg21
V4
sg22
Vr
sg15
F2.9838669300079346
sg23
g27
sg19
g20
sg14
I0
sg29
g30
sa(dp461
g28
g11
sg21
V4
sg22
Vr
sg15
F2.7686078548431396
sg23
g27
sg19
g20
sg14
I0
sg29
g30
sa(dp462
g28
g11
sg21
V4
sg22
Vr
sg15
F2.6338801383972168
sg23
g27
sg19
g20
sg14
I1
sg29
g30
sa(dp463
g28
g11
sg21
V4
sg22
Vr
sg15
F1.1043801307678223
sg23
g27
sg19
g20
sg14
I1
sg29
g30
sa(dp464
g28
g11
sg21
V4
sg22
Vr
sg15
F2.3704819679260254
sg23
g27
sg19
g20
sg14
I0
sg29
g30
sa(dp465
g28
g11
sg21
V4
sg22
Vr
sg15
F3.2356481552124023
sg23
g27
sg19
g20
sg14
I1
sg29
g30
sa(dp466
g28
g11
sg21
V4
sg22
Vr
sg15
F2.6334080696105957
sg23
g27
sg19
g20
sg14
I0
sg29
g30
sa(dp467
g28
g11
sg21
V4
sg22
Vr
sg15
F2.4726018905639648
sg23
g27
sg19
g20
sg14
I1
sg29
g30
sa(dp468
g28
g11
sg21
V4
sg22
Vr
sg15
F3.0505330562591553
sg23
g27
sg19
g20
sg14
I1
sg29
g30
sa(dp469
g28
g11
sg21
V4
sg22
Vr
sg15
F1.370013952255249
sg23
g27
sg19
g20
sg14
I1
sg29
g30
sa(dp470
g28
g11
sg21
V4
sg22
Vr
sg15
F0.93127918243408203
sg23
g27
sg19
g20
sg14
I1
sg29
g30
sa(dp471
g28
g11
sg21
V4
sg22
Vr
sg15
F1.1308989524841309
sg23
g27
sg19
g20
sg14
I1
sg29
g30
sa(dp472
g28
g11
sg21
V4
sg22
Vr
sg15
F1.5821740627288818
sg23
g27
sg19
g20
sg14
I1
sg29
g30
sa(dp473
g28
g11
sg21
V4
sg22
Vr
sg15
F1.4125089645385742
sg23
g27
sg19
g20
sg14
I1
sg29
g30
sa(dp474
g28
g11
sg21
V4
sg22
Vr
sg15
F1.0311069488525391
sg23
g27
sg19
g20
sg14
I1
sg29
g30
sa(dp475
g28
g11
sg21
V4
sg22
Vr
sg15
F2.0067250728607178
sg23
g27
sg19
g20
sg14
I0
sg29
g30
sa(dp476
g28
g11
sg21
V4
sg22
Vr
sg15
F2.9702730178833008
sg23
g27
sg19
g20
sg14
I1
sg29
g30
sa(dp477
g28
g11
sg21
V4
sg22
Vr
sg15
F0.86348986625671387
sg23
g27
sg19
g20
sg14
I1
sg29
g30
sa(dp478
g28
g11
sg21
V4
sg22
Vr
sg15
F1.048649787902832
sg23
g27
sg19
g20
sg14
I1
sg29
g30
sa(dp479
g28
g11
sg21
V4
sg22
Vr
sg15
F2.6616649627685547
sg23
g27
sg19
g20
sg14
I0
sg29
g30
sa(dp480
g28
g11
sg21
V4
sg22
Vr
sg15
F1.0725247859954834
sg23
g27
sg19
g20
sg14
I1
sg29
g30
sa(dp481
g28
g11
sg21
V4
sg22
Vr
sg15
F1.0296280384063721
sg23
g27
sg19
g20
sg14
I1
sg29
g30
sa(dp482
g28
g11
sg21
V4
sg22
Vr
sg15
F2.9660570621490479
sg23
g27
sg19
g20
sg14
I0
sg29
g30
sa(dp483
g28
g11
sg21
V4
sg22
Vr
sg15
F0.83019900321960449
sg23
g27
sg19
g20
sg14
I1
sg29
g30
sa(dp484
g28
g11
sg21
V4
sg22
Vr
sg15
F1.0139942169189453
sg23
g27
sg19
g20
sg14
I1
sg29
g30
sa(dp485
g28
g11
sg21
V4
sg22
Vr
sg15
F0.79789519309997559
sg23
g27
sg19
g20
sg14
I1
sg29
g30
sa(dp486
g28
g11
sg21
V4
sg22
Vr
sg15
F2.4333820343017578
sg23
g27
sg19
g20
sg14
I1
sg29
g30
sa(dp487
g28
g11
sg21
V4
sg22
Vr
sg15
F3.5898909568786621
sg23
g27
sg19
g20
sg14
I1
sg29
g30
sa(dp488
g28
g11
sg21
V4
sg22
Vr
sg15
F2.8677189350128174
sg23
g27
sg19
g20
sg14
I1
sg29
g30
sa(dp489
g28
g11
sg21
V4
sg22
Vr
sg15
F1.4808850288391113
sg23
g27
sg19
g20
sg14
I1
sg29
g30
sa(dp490
g28
g11
sg21
V4
sg22
Vr
sg15
F1.0660102367401123
sg23
g27
sg19
g20
sg14
I1
sg29
g30
sa(dp491
g28
g11
sg21
V4
sg22
Vr
sg15
F1.6376669406890869
sg23
g27
sg19
g20
sg14
I1
sg29
g30
sa(dp492
g28
g11
sg21
V4
sg22
Vr
sg15
F2.2045121192932129
sg23
g27
sg19
g20
sg14
I1
sg29
g30
sa(dp493
g28
g11
sg21
V4
sg22
Vr
sg15
F2.8383541107177734
sg23
g27
sg19
g20
sg14
I0
sg29
g30
sa(dp494
g28
g11
sg21
V4
sg22
Vr
sg15
F1.3315398693084717
sg23
g27
sg19
g20
sg14
I1
sg29
g30
sa(dp495
g28
g11
sg21
V4
sg22
Vr
sg15
F2.4997601509094238
sg23
g27
sg19
g20
sg14
I0
sg29
g30
sa(dp496
g28
g11
sg21
V4
sg22
Vr
sg15
F0.88175010681152344
sg23
g27
sg19
g20
sg14
I1
sg29
g30
sa(dp497
g28
g11
sg21
V4
sg22
Vr
sg15
F2.5907440185546875
sg23
g27
sg19
g20
sg14
I1
sg29
g30
sa(dp498
g28
g11
sg21
V4
sg22
Vr
sg15
F1.6169838905334473
sg23
g27
sg19
g20
sg14
I1
sg29
g30
sa(dp499
g28
g11
sg21
V4
sg22
Vr
sg15
F1.4496800899505615
sg23
g27
sg19
g20
sg14
I1
sg29
g30
sa(dp500
g28
g11
sg21
V4
sg22
Vr
sg15
F1.4329731464385986
sg23
g27
sg19
g20
sg14
I1
sg29
g30
sa(dp501
g28
g11
sg21
V4
sg22
Vr
sg15
F2.7152888774871826
sg23
g27
sg19
g20
sg14
I0
sg29
g30
sa(dp502
g28
g11
sg21
V4
sg22
Vr
sg15
F3.0348019599914551
sg23
g27
sg19
g20
sg14
I0
sg29
g30
sa(dp503
g28
g11
sg21
V4
sg22
Vr
sg15
F2.5685551166534424
sg23
g27
sg19
g20
sg14
I1
sg29
g30
sa(dp504
g28
g11
sg21
V4
sg22
Vr
sg15
F1.8552680015563965
sg23
g27
sg19
g20
sg14
I0
sg29
g30
sa(dp505
g28
g11
sg21
V4
sg22
Vr
sg15
F0.88339900970458984
sg23
g27
sg19
g20
sg14
I1
sg29
g30
sa(dp506
g28
g11
sg21
V4
sg22
Vr
sg15
F1.4144940376281738
sg23
g27
sg19
g20
sg14
I1
sg29
g30
sa(dp507
g28
g11
sg21
V4
sg22
Vr
sg15
F1.6320388317108154
sg23
g27
sg19
g20
sg14
I1
sg29
g30
sa(dp508
g28
g11
sg21
V4
sg22
Vr
sg15
F0.98055100440979004
sg23
g27
sg19
g20
sg14
I1
sg29
g30
sa(dp509
g28
g11
sg21
V4
sg22
Vr
sg15
F1.6881189346313477
sg23
g27
sg19
g20
sg14
I1
sg29
g30
sa(dp510
g28
g11
sg21
V4
sg22
Vr
sg15
F2.317267894744873
sg23
g27
sg19
g20
sg14
I1
sg29
g30
sa(dp511
g28
g11
sg21
V4
sg22
Vr
sg15
F2.9041898250579834
sg23
g27
sg19
g20
sg14
I0
sg29
g30
sa(dp512
g28
g11
sg21
V4
sg22
Vr
sg15
F2.5489251613616943
sg23
g27
sg19
g20
sg14
I1
sg29
g30
sa(dp513
g28
g11
sg21
V4
sg22
Vr
sg15
F1.6162221431732178
sg23
g27
sg19
g20
sg14
I1
sg29
g30
sa(dp514
g28
g11
sg21
V4
sg22
Vr
sg15
F2.4176199436187744
sg23
g27
sg19
g20
sg14
I0
sg29
g30
sa(dp515
g28
g11
sg21
V4
sg22
Vr
sg15
F0.94079303741455078
sg23
g27
sg19
g20
sg14
I1
sg29
g30
sa(dp516
g28
g11
sg21
V4
sg22
Vr
sg15
F1.1494569778442383
sg23
g27
sg19
g20
sg14
I1
sg29
g30
sa(dp517
g28
g11
sg21
V4
sg22
Vr
sg15
F2.433906078338623
sg23
g27
sg19
g20
sg14
I1
sg29
g30
sa(dp518
g28
g11
sg21
V4
sg22
Vr
sg15
F1.8669760227203369
sg23
g27
sg19
g20
sg14
I0
sg29
g30
sa(dp519
g28
g11
sg21
V4
sg22
Vr
sg15
F1.5142741203308105
sg23
g27
sg19
g20
sg14
I1
sg29
g30
sa(dp520
g28
g11
sg21
V4
sg22
Vr
sg15
F1.6150310039520264
sg23
g27
sg19
g20
sg14
I1
sg29
g30
sa(dp521
g28
g11
sg21
V4
sg22
Vr
sg15
F2.39988112449646
sg23
g27
sg19
g20
sg14
I0
sg29
g30
sa(dp522
g28
g11
sg21
V4
sg22
Vr
sg15
F0.90578603744506836
sg23
g27
sg19
g20
sg14
I1
sg29
g30
sa(dp523
g28
g11
sg21
V4
sg22
Vr
sg15
F1.5654277801513672
sg23
g27
sg19
g20
sg14
I1
sg29
g30
sa(dp524
g28
g11
sg21
V4
sg22
Vr
sg15
F2.7359249591827393
sg23
g27
sg19
g20
sg14
I1
sg29
g30
sa(dp525
g28
g11
sg21
V4
sg22
Vr
sg15
F2.884268045425415
sg23
g27
sg19
g20
sg14
I1
sg29
g30
sa(dp526
g28
g11
sg21
V4
sg22
Vr
sg15
F2.7122461795806885
sg23
g27
sg19
g20
sg14
I0
sg29
g30
sa(dp527
g28
g11
sg21
V4
sg22
Vr
sg15
F1.9072680473327637
sg23
g27
sg19
g20
sg14
I1
sg29
g30
sa(dp528
g28
g11
sg21
V4
sg22
Vr
sg15
F3.2051470279693604
sg23
g27
sg19
g20
sg14
I1
sg29
g30
sa(dp529
g28
g11
sg21
V4
sg22
Vr
sg15
F2.6508960723876953
sg23
g27
sg19
g20
sg14
I0
sg29
g30
sa(dp530
g28
g11
sg21
V4
sg22
Vr
sg15
F1.5324771404266357
sg23
g27
sg19
g20
sg14
I1
sg29
g30
sa(dp531
g28
g11
sg21
V4
sg22
Vr
sg15
F2.8684849739074707
sg23
g27
sg19
g20
sg14
I0
sg29
g30
sa(dp532
g28
g11
sg21
V4
sg22
Vr
sg15
F4.0711429119110107
sg23
g27
sg19
g20
sg14
I1
sg29
g30
sa(dp533
g28
g11
sg21
V4
sg22
Vr
sg15
F1.0648550987243652
sg23
g27
sg19
g20
sg14
I1
sg29
g30
sa(dp534
g28
g11
sg21
V4
sg22
Vr
sg15
F1.2175760269165039
sg23
g27
sg19
g20
sg14
I1
sg29
g30
sa(dp535
g28
g11
sg21
V4
sg22
Vr
sg15
F2.924159049987793
sg23
g27
sg19
g20
sg14
I0
sg29
g30
sa(dp536
g28
g11
sg21
V4
sg22
Vr
sg15
F2.8228061199188232
sg23
g27
sg19
g20
sg14
I0
sg29
g30
sa(dp537
g28
g11
sg21
V4
sg22
Vr
sg15
F2.369455099105835
sg23
g27
sg19
g20
sg14
I0
sg29
g30
sa(dp538
g28
g11
sg21
V4
sg22
Vr
sg15
F1.2979040145874023
sg23
g27
sg19
g20
sg14
I1
sg29
g30
sa(dp539
g28
g11
sg21
V4
sg22
Vr
sg15
F1.167266845703125
sg23
g27
sg19
g20
sg14
I1
sg29
g30
sa(dp540
g28
g11
sg21
V4
sg22
Vr
sg15
F1.1319210529327393
sg23
g27
sg19
g20
sg14
I1
sg29
g30
sa(dp541
g28
g11
sg21
V4
sg22
Vr
sg15
F1.3384678363800049
sg23
g27
sg19
g20
sg14
I1
sg29
g30
sa(dp542
g28
g11
sg21
V4
sg22
Vr
sg15
F1.3490099906921387
sg23
g27
sg19
g20
sg14
I1
sg29
g30
sa(dp543
g28
g11
sg21
V4
sg22
Vr
sg15
F1.1497941017150879
sg23
g27
sg19
g20
sg14
I1
sg29
g30
sa(dp544
g28
g11
sg21
V4
sg22
Vr
sg15
F2.3676130771636963
sg23
g27
sg19
g20
sg14
I1
sg29
g30
sa(dp545
g28
g11
sg21
V4
sg22
Vr
sg15
F3.1473731994628906
sg23
g27
sg19
g20
sg14
I0
sg29
g30
sa(dp546
g28
g11
sg21
V4
sg22
Vr
sg15
F2.3016438484191895
sg23
g27
sg19
g20
sg14
I0
sg29
g30
sa(dp547
g28
g11
sg21
V4
sg22
Vr
sg15
F1.8319590091705322
sg23
g27
sg19
g20
sg14
I1
sg29
g30
sa(dp548
g28
g11
sg21
V4
sg22
Vr
sg15
F1.1144640445709229
sg23
g27
sg19
g20
sg14
I1
sg29
g30
sa(dp549
g28
g11
sg21
V4
sg22
Vr
sg15
F2.3848099708557129
sg23
g27
sg19
g20
sg14
I0
sg29
g30
sa(dp550
g28
g11
sg21
V4
sg22
Vr
sg15
F3.3031890392303467
sg23
g27
sg19
g20
sg14
I0
sg29
g30
sa(dp551
g28
g11
sg21
V4
sg22
Vr
sg15
F1.7522120475769043
sg23
g27
sg19
g20
sg14
I1
sg29
g30
sa(dp552
g28
g11
sg21
V4
sg22
Vr
sg15
F1.9367837905883789
sg23
g27
sg19
g20
sg14
I1
sg29
g30
sa(dp553
g28
g11
sg21
V4
sg22
Vr
sg15
F0.98050498962402344
sg23
g27
sg19
g20
sg14
I1
sg29
g30
sa(dp554
g28
g11
sg21
V4
sg22
Vr
sg15
F1.9709088802337646
sg23
g27
sg19
g20
sg14
I1
sg29
g30
sa(dp555
g28
g11
sg21
V4
sg22
Vr
sg15
F2.585604190826416
sg23
g27
sg19
g20
sg14
I1
sg29
g30
sa(dp556
g28
g11
sg21
V4
sg22
Vr
sg15
F1.8162860870361328
sg23
g27
sg19
g20
sg14
I1
sg29
g30
sa(dp557
g28
g11
sg21
V4
sg22
Vr
sg15
F3.401461124420166
sg23
g27
sg19
g20
sg14
I1
sg29
g30
sa(dp558
g28
g11
sg21
V4
sg22
Vr
sg15
F1.6649079322814941
sg23
g27
sg19
g20
sg14
I1
sg29
g30
sa(dp559
g28
g11
sg21
V4
sg22
Vr
sg15
F3.7753241062164307
sg23
g27
sg19
g20
sg14
I0
sg29
g30
sa(dp560
g28
g11
sg21
V4
sg22
Vr
sg15
F2.9977049827575684
sg23
g27
sg19
g20
sg14
I0
sg29
g30
sa(dp561
g28
g11
sg21
V4
sg22
Vr
sg15
F1.5997231006622314
sg23
g27
sg19
g20
sg14
I1
sg29
g30
sa(dp562
g28
g11
sg21
V4
sg22
Vr
sg15
F3.0841419696807861
sg23
g27
sg19
g20
sg14
I1
sg29
g30
sa(dp563
g28
g11
sg21
V4
sg22
Vr
sg15
F0.91492080688476562
sg23
g27
sg19
g20
sg14
I1
sg29
g30
sa(dp564
g28
g11
sg21
V4
sg22
Vr
sg15
F1.4801969528198242
sg23
g27
sg19
g20
sg14
I0
sg29
g30
sa(dp565
g28
g11
sg21
V4
sg22
Vr
sg15
F2.7528340816497803
sg23
g27
sg19
g20
sg14
I0
sg29
g30
sa(dp566
g28
g11
sg21
V4
sg22
Vr
sg15
F0.95057797431945801
sg23
g27
sg19
g20
sg14
I1
sg29
g30
sa(dp567
g28
g11
sg21
V4
sg22
Vr
sg15
F1.1308269500732422
sg23
g27
sg19
g20
sg14
I1
sg29
g30
sa(dp568
g28
g11
sg21
V4
sg22
Vr
sg15
F2.317579984664917
sg23
g27
sg19
g20
sg14
I1
sg29
g30
sa(dp569
g28
g11
sg21
V4
sg22
Vr
sg15
F2.1889560222625732
sg23
g27
sg19
g20
sg14
I0
sg29
g30
sa(dp570
g28
g11
sg21
V4
sg22
Vr
sg15
F2.4596250057220459
sg23
g27
sg19
g20
sg14
I0
sg29
g30
sa(dp571
g28
g11
sg21
V4
sg22
Vr
sg15
F2.0211970806121826
sg23
g27
sg19
g20
sg14
I0
sg29
g30
sa(dp572
g28
g11
sg21
V4
sg22
Vr
sg15
F2.484450101852417
sg23
g27
sg19
g20
sg14
I1
sg29
g30
sa(dp573
g28
g11
sg21
V4
sg22
Vr
sg15
F1.1484520435333252
sg23
g27
sg19
g20
sg14
I1
sg29
g30
sa(dp574
g28
g11
sg21
V4
sg22
Vr
sg15
F1.1822531223297119
sg23
g27
sg19
g20
sg14
I1
sg29
g30
sa(dp575
g28
g11
sg21
V4
sg22
Vr
sg15
F1.111253023147583
sg23
g27
sg19
g20
sg14
I1
sg29
g30
sa(dp576
g28
g11
sg21
V4
sg22
Vr
sg15
F0.8333580493927002
sg23
g27
sg19
g20
sg14
I1
sg29
g30
sa(dp577
g28
g11
sg21
V4
sg22
Vr
sg15
F1.215407133102417
sg23
g27
sg19
g20
sg14
I1
sg29
g30
sa(dp578
g28
g11
sg21
V4
sg22
Vr
sg15
F1.5308761596679688
sg23
g27
sg19
g20
sg14
I1
sg29
g30
sa(dp579
g28
g11
sg21
V4
sg22
Vr
sg15
F0.93171286582946777
sg23
g27
sg19
g20
sg14
I1
sg29
g30
sa(dp580
g28
g11
sg21
V4
sg22
Vr
sg15
F0.83165693283081055
sg23
g27
sg19
g20
sg14
I1
sg29
g30
sa(dp581
g28
g11
sg21
V4
sg22
Vr
sg15
F0.91401505470275879
sg23
g27
sg19
g20
sg14
I1
sg29
g30
sa(dp582
g28
g11
sg21
V4
sg22
Vr
sg15
F0.96927404403686523
sg23
g27
sg19
g20
sg14
I1
sg29
g30
sa(dp583
g28
g11
sg21
V4
sg22
Vr
sg15
F2.919238805770874
sg23
g27
sg19
g20
sg14
I1
sg29
g30
sa(dp584
g28
g11
sg21
V4
sg22
Vr
sg15
F0.88030600547790527
sg23
g27
sg19
g20
sg14
I1
sg29
g30
sa(dp585
g28
g11
sg21
V4
sg22
Vr
sg15
F1.6808021068572998
sg23
g27
sg19
g20
sg14
I1
sg29
g30
sa(dp586
g28
g11
sg21
V4
sg22
Vr
sg15
F3.0187511444091797
sg23
g27
sg19
g20
sg14
I1
sg29
g30
sa(dp587
g28
g11
sg21
V4
sg22
Vr
sg15
F0.86308598518371582
sg23
g27
sg19
g20
sg14
I1
sg29
g30
sa(dp588
g28
g11
sg21
V4
sg22
Vr
sg15
F2.567608118057251
sg23
g27
sg19
g20
sg14
I1
sg29
g30
sa(dp589
g28
g11
sg21
V4
sg22
Vr
sg15
F2.2662010192871094
sg23
g27
sg19
g20
sg14
I1
sg29
g30
sa(dp590
g28
g11
sg21
V4
sg22
Vr
sg15
F1.4987549781799316
sg23
g27
sg19
g20
sg14
I1
sg29
g30
sa(dp591
g28
g11
sg21
V4
sg22
Vr
sg15
F2.3110110759735107
sg23
g27
sg19
g20
sg14
I1
sg29
g30
sa(dp592
g28
g11
sg21
V4
sg22
Vr
sg15
F1.2378640174865723
sg23
g27
sg19
g20
sg14
I1
sg29
g30
sa(dp593
g28
g11
sg21
V4
sg22
Vr
sg15
F2.8233580589294434
sg23
g27
sg19
g20
sg14
I1
sg29
g30
sa(dp594
g28
g11
sg21
V4
sg22
Vr
sg15
F0.85254406929016113
sg23
g27
sg19
g20
sg14
I1
sg29
g30
sa(dp595
g28
g11
sg21
V4
sg22
Vr
sg15
F2.3670370578765869
sg23
g27
sg19
g20
sg14
I1
sg29
g30
sa(dp596
g28
g11
sg21
V4
sg22
Vr
sg15
F2.4153399467468262
sg23
g27
sg19
g20
sg14
I0
sg29
g30
sa(dp597
g28
g11
sg21
V4
sg22
Vr
sg15
F0.92965507507324219
sg23
g27
sg19
g20
sg14
I1
sg29
g30
sa(dp598
g28
g11
sg21
V4
sg22
Vr
sg15
F0.88700389862060547
sg23
g27
sg19
g20
sg14
I1
sg29
g30
sa(dp599
g28
g11
sg21
V4
sg22
Vr
sg15
F0.93011307716369629
sg23
g27
sg19
g20
sg14
I1
sg29
g30
sa(dp600
g28
g11
sg21
V4
sg22
Vr
sg15
F2.435492992401123
sg23
g27
sg19
g20
sg14
I0
sg29
g30
sa(dp601
g28
g11
sg21
V4
sg22
Vr
sg15
F0.89914393424987793
sg23
g27
sg19
g20
sg14
I1
sg29
g30
sa(dp602
g28
g11
sg21
V4
sg22
Vr
sg15
F2.4831469058990479
sg23
g27
sg19
g20
sg14
I0
sg29
g30
sa(dp603
g28
g11
sg21
V4
sg22
Vr
sg15
F0.99792313575744629
sg23
g27
sg19
g20
sg14
I1
sg29
g30
sa(dp604
g28
g11
sg21
V4
sg22
Vr
sg15
F1.7393300533294678
sg23
g27
sg19
g20
sg14
I0
sg29
g30
sa(dp605
g28
g11
sg21
V4
sg22
Vr
sg15
F1.7490429878234863
sg23
g27
sg19
g20
sg14
I1
sg29
g30
sa(dp606
g28
g11
sg21
V4
sg22
Vr
sg15
F1.5037810802459717
sg23
g27
sg19
g20
sg14
I1
sg29
g30
sa(dp607
g28
g11
sg21
V4
sg22
Vr
sg15
F1.2493219375610352
sg23
g27
sg19
g20
sg14
I1
sg29
g30
sa(dp608
g28
g11
sg21
V4
sg22
Vr
sg15
F0.84740900993347168
sg23
g27
sg19
g20
sg14
I1
sg29
g30
sa(dp609
g28
g11
sg21
V4
sg22
Vr
sg15
F1.5969681739807129
sg23
g27
sg19
g20
sg14
I1
sg29
g30
sa(dp610
g28
g11
sg21
V4
sg22
Vr
sg15
F2.9499549865722656
sg23
g27
sg19
g20
sg14
I1
sg29
g30
sa(dp611
g28
g11
sg21
V4
sg22
Vr
sg15
F1.8493118286132812
sg23
g27
sg19
g20
sg14
I1
sg29
g30
sa(dp612
g28
g11
sg21
V4
sg22
Vr
sg15
F2.9726228713989258
sg23
g27
sg19
g20
sg14
I0
sg29
g30
sa(dp613
g28
g11
sg21
V4
sg22
Vr
sg15
F2.8013501167297363
sg23
g27
sg19
g20
sg14
I0
sg29
g30
sa(dp614
g28
g11
sg21
V4
sg22
Vr
sg15
F1.4490311145782471
sg23
g27
sg19
g20
sg14
I1
sg29
g30
sa(dp615
g28
g11
sg21
V4
sg22
Vr
sg15
F2.9838321208953857
sg23
g27
sg19
g20
sg14
I0
sg29
g30
sa(dp616
g28
g11
sg21
V4
sg22
Vr
sg15
F3.058222770690918
sg23
g27
sg19
g20
sg14
I1
sg29
g30
sa(dp617
g28
g11
sg21
V4
sg22
Vr
sg15
F2.0220761299133301
sg23
g27
sg19
g20
sg14
I1
sg29
g30
sa(dp618
g28
g11
sg21
V4
sg22
Vr
sg15
F2.5037600994110107
sg23
g27
sg19
g20
sg14
I1
sg29
g30
sa(dp619
g28
g11
sg21
V4
sg22
Vr
sg15
F3.5683588981628418
sg23
g27
sg19
g20
sg14
I1
sg29
g30
sa(dp620
g28
g11
sg21
V4
sg22
Vr
sg15
F2.3994917869567871
sg23
g27
sg19
g20
sg14
I0
sg29
g30
sa(dp621
g28
g11
sg21
V4
sg22
Vr
sg15
F1.2050478458404541
sg23
g27
sg19
g20
sg14
I1
sg29
g30
sa(dp622
g28
g11
sg21
V4
sg22
Vr
sg15
F2.5826671123504639
sg23
g27
sg19
g20
sg14
I1
sg29
g30
sa(dp623
g28
g11
sg21
V4
sg22
Vr
sg15
F3.5219900608062744
sg23
g27
sg19
g20
sg14
I1
sg29
g30
sa(dp624
g28
g11
sg21
V4
sg22
Vr
sg15
F2.6341490745544434
sg23
g27
sg19
g20
sg14
I0
sg29
g30
sa(dp625
g28
g11
sg21
V4
sg22
Vr
sg15
F1.8983249664306641
sg23
g27
sg19
g20
sg14
I1
sg29
g30
sa(dp626
g28
g11
sg21
V4
sg22
Vr
sg15
F3.2015500068664551
sg23
g27
sg19
g20
sg14
I1
sg29
g30
sa(dp627
g28
g11
sg21
V4
sg22
Vr
sg15
F3.4375629425048828
sg23
g27
sg19
g20
sg14
I0
sg29
g30
sa(dp628
g28
g11
sg21
V4
sg22
Vr
sg15
F0.89974403381347656
sg23
g27
sg19
g20
sg14
I1
sg29
g30
sa(dp629
g28
g11
sg21
V4
sg22
Vr
sg15
F3.1179721355438232
sg23
g27
sg19
g20
sg14
I1
sg29
g30
sa(dp630
g28
g11
sg21
V4
sg22
Vr
sg15
F2.9458098411560059
sg23
g27
sg19
g20
sg14
I0
sg29
g30
sa(dp631
g28
g11
sg21
V4
sg22
Vr
sg15
F0.94767999649047852
sg23
g27
sg19
g20
sg14
I1
sg29
g30
sa(dp632
g28
g11
sg21
V4
sg22
Vr
sg15
F2.7191059589385986
sg23
g27
sg19
g20
sg14
I0
sg29
g30
sa(dp633
g28
g11
sg21
V4
sg22
Vr
sg15
F2.702564001083374
sg23
g27
sg19
g20
sg14
I1
sg29
g30
sa(dp634
g28
g11
sg21
V4
sg22
Vr
sg15
F2.6498458385467529
sg23
g27
sg19
g20
sg14
I0
sg29
g30
sa(dp635
g28
g11
sg21
V4
sg22
Vr
sg15
F1.2980701923370361
sg23
g27
sg19
g20
sg14
I1
sg29
g30
sa(dp636
g28
g11
sg21
V4
sg22
Vr
sg15
F3.025460958480835
sg23
g27
sg19
g20
sg14
I1
sg29
g30
sa(dp637
g28
g11
sg21
V4
sg22
Vr
sg15
F2.4060838222503662
sg23
g27
sg19
g20
sg14
I0
sg29
g30
sa(dp638
g28
g11
sg21
V4
sg22
Vr
sg15
F3.0043179988861084
sg23
g27
sg19
g20
sg14
I0
sg29
g30
sa(dp639
g28
g11
sg21
V4
sg22
Vr
sg15
F2.4002938270568848
sg23
g27
sg19
g20
sg14
I0
sg29
g30
sa(dp640
g28
g11
sg21
V4
sg22
Vr
sg15
F2.015326976776123
sg23
g27
sg19
g20
sg14
I1
sg29
g30
sasS'loops'
p641
(lp642
sS'savePickle'
p643
I00
sb.