ccopy_reg
_reconstructor
p1
(cpsychopy.data
ExperimentHandler
p2
c__builtin__
object
p3
NtRp4
(dp5
S'originPath'
p6
NsS'dataFileName'
p7
V/Users/egor/Dropbox/projects/supr-eff/supreff/data/supreff_2_r_01_2015_Apr_07_1427
p8
sS'runtimeInfo'
p9
NsS'name'
p10
S'supreff'
p11
sS'dataNames'
p12
(lp13
S'.response'
p14
aS'key_upDown.rt'
p15
asS'autoLog'
p16
I01
sS'extraInfo'
p17
(dp18
Vsession
p19
V01
p20
sVparticipant
p21
V2
sVdomEye
p22
Vr
sS'frameRate'
p23
cnumpy.core.multiarray
scalar
p24
(cnumpy
dtype
p25
(S'f8'
I0
I1
tRp26
(I3
S'<'
NNNI-1
I-1
I0
tbS'\xe6n\xf8l\xf5:N@'
tRp27
sS'expName'
p28
g11
sS'date'
p29
V2015_Apr_07_1427
p30
ssS'loopsUnfinished'
p31
(lp32
sS'saveWideText'
p33
I01
sS'thisEntry'
p34
(dp35
sS'version'
p36
S''
sS'_paramNamesSoFar'
p37
(lp38
sS'entries'
p39
(lp40
(dp41
g28
g11
sg21
V2
sg22
Vr
sg15
F2.1499760150909424
sg23
g27
sg19
g20
sg14
I1
sg29
g30
sa(dp42
g28
g11
sg21
V2
sg22
Vr
sg15
F16.890069961547852
sg23
g27
sg19
g20
sg14
I1
sg29
g30
sa(dp43
g28
g11
sg21
V2
sg22
Vr
sg15
F2.1844959259033203
sg23
g27
sg19
g20
sg14
I1
sg29
g30
sa(dp44
g28
g11
sg21
V2
sg22
Vr
sg15
F16.280996084213257
sg23
g27
sg19
g20
sg14
I0
sg29
g30
sa(dp45
g28
g11
sg21
V2
sg22
Vr
sg15
F1.5982849597930908
sg23
g27
sg19
g20
sg14
I1
sg29
g30
sa(dp46
g28
g11
sg21
V2
sg22
Vr
sg15
F4.1475369930267334
sg23
g27
sg19
g20
sg14
I1
sg29
g30
sa(dp47
g28
g11
sg21
V2
sg22
Vr
sg15
F2.487354040145874
sg23
g27
sg19
g20
sg14
I1
sg29
g30
sa(dp48
g28
g11
sg21
V2
sg22
Vr
sg15
F1.8671729564666748
sg23
g27
sg19
g20
sg14
I1
sg29
g30
sa(dp49
g28
g11
sg21
V2
sg22
Vr
sg15
F5.7574710845947266
sg23
g27
sg19
g20
sg14
I0
sg29
g30
sa(dp50
g28
g11
sg21
V2
sg22
Vr
sg15
F1.7218210697174072
sg23
g27
sg19
g20
sg14
I1
sg29
g30
sa(dp51
g28
g11
sg21
V2
sg22
Vr
sg15
F2.0187239646911621
sg23
g27
sg19
g20
sg14
I1
sg29
g30
sa(dp52
g28
g11
sg21
V2
sg22
Vr
sg15
F1.1003720760345459
sg23
g27
sg19
g20
sg14
I1
sg29
g30
sa(dp53
g28
g11
sg21
V2
sg22
Vr
sg15
F1.0645120143890381
sg23
g27
sg19
g20
sg14
I1
sg29
g30
sa(dp54
g28
g11
sg21
V2
sg22
Vr
sg15
F2.5663609504699707
sg23
g27
sg19
g20
sg14
I1
sg29
g30
sa(dp55
g28
g11
sg21
V2
sg22
Vr
sg15
F1.7198419570922852
sg23
g27
sg19
g20
sg14
I1
sg29
g30
sa(dp56
g28
g11
sg21
V2
sg22
Vr
sg15
F1.9988439083099365
sg23
g27
sg19
g20
sg14
I1
sg29
g30
sa(dp57
g28
g11
sg21
V2
sg22
Vr
sg15
F0.96402597427368164
sg23
g27
sg19
g20
sg14
I1
sg29
g30
sa(dp58
g28
g11
sg21
V2
sg22
Vr
sg15
F2.045706033706665
sg23
g27
sg19
g20
sg14
I1
sg29
g30
sa(dp59
g28
g11
sg21
V2
sg22
Vr
sg15
F1.6906030178070068
sg23
g27
sg19
g20
sg14
I1
sg29
g30
sa(dp60
g28
g11
sg21
V2
sg22
Vr
sg15
F3.4343650341033936
sg23
g27
sg19
g20
sg14
I0
sg29
g30
sa(dp61
g28
g11
sg21
V2
sg22
Vr
sg15
F3.9025108814239502
sg23
g27
sg19
g20
sg14
I1
sg29
g30
sa(dp62
g28
g11
sg21
V2
sg22
Vr
sg15
F1.7164289951324463
sg23
g27
sg19
g20
sg14
I1
sg29
g30
sa(dp63
g28
g11
sg21
V2
sg22
Vr
sg15
F1.1813628673553467
sg23
g27
sg19
g20
sg14
I1
sg29
g30
sa(dp64
g28
g11
sg21
V2
sg22
Vr
sg15
F2.8215057849884033
sg23
g27
sg19
g20
sg14
I1
sg29
g30
sa(dp65
g28
g11
sg21
V2
sg22
Vr
sg15
F1.3141980171203613
sg23
g27
sg19
g20
sg14
I1
sg29
g30
sa(dp66
g28
g11
sg21
V2
sg22
Vr
sg15
F1.2475249767303467
sg23
g27
sg19
g20
sg14
I1
sg29
g30
sa(dp67
g28
g11
sg21
V2
sg22
Vr
sg15
F2.0361270904541016
sg23
g27
sg19
g20
sg14
I0
sg29
g30
sa(dp68
g28
g11
sg21
V2
sg22
Vr
sg15
F1.749255895614624
sg23
g27
sg19
g20
sg14
I1
sg29
g30
sa(dp69
g28
g11
sg21
V2
sg22
Vr
sg15
F1.3142719268798828
sg23
g27
sg19
g20
sg14
I1
sg29
g30
sa(dp70
g28
g11
sg21
V2
sg22
Vr
sg15
F0.78227901458740234
sg23
g27
sg19
g20
sg14
I1
sg29
g30
sa(dp71
g28
g11
sg21
V2
sg22
Vr
sg15
F0.64802312850952148
sg23
g27
sg19
g20
sg14
I1
sg29
g30
sa(dp72
g28
g11
sg21
V2
sg22
Vr
sg15
F0.88115310668945312
sg23
g27
sg19
g20
sg14
I1
sg29
g30
sa(dp73
g28
g11
sg21
V2
sg22
Vr
sg15
F0.79659605026245117
sg23
g27
sg19
g20
sg14
I1
sg29
g30
sa(dp74
g28
g11
sg21
V2
sg22
Vr
sg15
F3.6457362174987793
sg23
g27
sg19
g20
sg14
I1
sg29
g30
sa(dp75
g28
g11
sg21
V2
sg22
Vr
sg15
F0.90124201774597168
sg23
g27
sg19
g20
sg14
I1
sg29
g30
sa(dp76
g28
g11
sg21
V2
sg22
Vr
sg15
F2.3841309547424316
sg23
g27
sg19
g20
sg14
I1
sg29
g30
sa(dp77
g28
g11
sg21
V2
sg22
Vr
sg15
F3.051239013671875
sg23
g27
sg19
g20
sg14
I1
sg29
g30
sa(dp78
g28
g11
sg21
V2
sg22
Vr
sg15
F3.7792818546295166
sg23
g27
sg19
g20
sg14
I0
sg29
g30
sa(dp79
g28
g11
sg21
V2
sg22
Vr
sg15
F1.3038289546966553
sg23
g27
sg19
g20
sg14
I1
sg29
g30
sa(dp80
g28
g11
sg21
V2
sg22
Vr
sg15
F3.2859790325164795
sg23
g27
sg19
g20
sg14
I0
sg29
g30
sa(dp81
g28
g11
sg21
V2
sg22
Vr
sg15
F1.0993950366973877
sg23
g27
sg19
g20
sg14
I1
sg29
g30
sa(dp82
g28
g11
sg21
V2
sg22
Vr
sg15
F0.93151497840881348
sg23
g27
sg19
g20
sg14
I1
sg29
g30
sa(dp83
g28
g11
sg21
V2
sg22
Vr
sg15
F0.71362018585205078
sg23
g27
sg19
g20
sg14
I1
sg29
g30
sa(dp84
g28
g11
sg21
V2
sg22
Vr
sg15
F2.2178061008453369
sg23
g27
sg19
g20
sg14
I1
sg29
g30
sa(dp85
g28
g11
sg21
V2
sg22
Vr
sg15
F0.89890384674072266
sg23
g27
sg19
g20
sg14
I1
sg29
g30
sa(dp86
g28
g11
sg21
V2
sg22
Vr
sg15
F1.916266918182373
sg23
g27
sg19
g20
sg14
I1
sg29
g30
sa(dp87
g28
g11
sg21
V2
sg22
Vr
sg15
F1.0323469638824463
sg23
g27
sg19
g20
sg14
I1
sg29
g30
sa(dp88
g28
g11
sg21
V2
sg22
Vr
sg15
F2.6207039356231689
sg23
g27
sg19
g20
sg14
I1
sg29
g30
sa(dp89
g28
g11
sg21
V2
sg22
Vr
sg15
F3.3399209976196289
sg23
g27
sg19
g20
sg14
I0
sg29
g30
sa(dp90
g28
g11
sg21
V2
sg22
Vr
sg15
F1.3653500080108643
sg23
g27
sg19
g20
sg14
I1
sg29
g30
sa(dp91
g28
g11
sg21
V2
sg22
Vr
sg15
F4.9871180057525635
sg23
g27
sg19
g20
sg14
I0
sg29
g30
sa(dp92
g28
g11
sg21
V2
sg22
Vr
sg15
F1.6162748336791992
sg23
g27
sg19
g20
sg14
I1
sg29
g30
sa(dp93
g28
g11
sg21
V2
sg22
Vr
sg15
F2.6718118190765381
sg23
g27
sg19
g20
sg14
I1
sg29
g30
sa(dp94
g28
g11
sg21
V2
sg22
Vr
sg15
F0.99796414375305176
sg23
g27
sg19
g20
sg14
I1
sg29
g30
sa(dp95
g28
g11
sg21
V2
sg22
Vr
sg15
F0.81462597846984863
sg23
g27
sg19
g20
sg14
I1
sg29
g30
sa(dp96
g28
g11
sg21
V2
sg22
Vr
sg15
F0.83071303367614746
sg23
g27
sg19
g20
sg14
I1
sg29
g30
sa(dp97
g28
g11
sg21
V2
sg22
Vr
sg15
F1.0296430587768555
sg23
g27
sg19
g20
sg14
I1
sg29
g30
sa(dp98
g28
g11
sg21
V2
sg22
Vr
sg15
F1.8165709972381592
sg23
g27
sg19
g20
sg14
I0
sg29
g30
sa(dp99
g28
g11
sg21
V2
sg22
Vr
sg15
F1.0301809310913086
sg23
g27
sg19
g20
sg14
I1
sg29
g30
sa(dp100
g28
g11
sg21
V2
sg22
Vr
sg15
F0.95262694358825684
sg23
g27
sg19
g20
sg14
I1
sg29
g30
sa(dp101
g28
g11
sg21
V2
sg22
Vr
sg15
F3.8697710037231445
sg23
g27
sg19
g20
sg14
I1
sg29
g30
sa(dp102
g28
g11
sg21
V2
sg22
Vr
sg15
F3.3706350326538086
sg23
g27
sg19
g20
sg14
I1
sg29
g30
sa(dp103
g28
g11
sg21
V2
sg22
Vr
sg15
F2.8411669731140137
sg23
g27
sg19
g20
sg14
I1
sg29
g30
sa(dp104
g28
g11
sg21
V2
sg22
Vr
sg15
F2.7566380500793457
sg23
g27
sg19
g20
sg14
I1
sg29
g30
sa(dp105
g28
g11
sg21
V2
sg22
Vr
sg15
F1.2017960548400879
sg23
g27
sg19
g20
sg14
I1
sg29
g30
sa(dp106
g28
g11
sg21
V2
sg22
Vr
sg15
F4.4563488960266113
sg23
g27
sg19
g20
sg14
I0
sg29
g30
sa(dp107
g28
g11
sg21
V2
sg22
Vr
sg15
F3.7698369026184082
sg23
g27
sg19
g20
sg14
I1
sg29
g30
sa(dp108
g28
g11
sg21
V2
sg22
Vr
sg15
F1.1661028861999512
sg23
g27
sg19
g20
sg14
I1
sg29
g30
sa(dp109
g28
g11
sg21
V2
sg22
Vr
sg15
F1.0626819133758545
sg23
g27
sg19
g20
sg14
I1
sg29
g30
sa(dp110
g28
g11
sg21
V2
sg22
Vr
sg15
F6.2919619083404541
sg23
g27
sg19
g20
sg14
I0
sg29
g30
sa(dp111
g28
g11
sg21
V2
sg22
Vr
sg15
F10.725059032440186
sg23
g27
sg19
g20
sg14
I0
sg29
g30
sa(dp112
g28
g11
sg21
V2
sg22
Vr
sg15
F2.717216968536377
sg23
g27
sg19
g20
sg14
I0
sg29
g30
sa(dp113
g28
g11
sg21
V2
sg22
Vr
sg15
F1.1075639724731445
sg23
g27
sg19
g20
sg14
I1
sg29
g30
sa(dp114
g28
g11
sg21
V2
sg22
Vr
sg15
F2.5165641307830811
sg23
g27
sg19
g20
sg14
I1
sg29
g30
sa(dp115
g28
g11
sg21
V2
sg22
Vr
sg15
F0.94811606407165527
sg23
g27
sg19
g20
sg14
I1
sg29
g30
sa(dp116
g28
g11
sg21
V2
sg22
Vr
sg15
F2.1497371196746826
sg23
g27
sg19
g20
sg14
I0
sg29
g30
sa(dp117
g28
g11
sg21
V2
sg22
Vr
sg15
F2.735969066619873
sg23
g27
sg19
g20
sg14
I1
sg29
g30
sa(dp118
g28
g11
sg21
V2
sg22
Vr
sg15
F0.78041911125183105
sg23
g27
sg19
g20
sg14
I1
sg29
g30
sa(dp119
g28
g11
sg21
V2
sg22
Vr
sg15
F1.6328449249267578
sg23
g27
sg19
g20
sg14
I1
sg29
g30
sa(dp120
g28
g11
sg21
V2
sg22
Vr
sg15
F1.1192550659179688
sg23
g27
sg19
g20
sg14
I1
sg29
g30
sa(dp121
g28
g11
sg21
V2
sg22
Vr
sg15
F2.9686179161071777
sg23
g27
sg19
g20
sg14
I0
sg29
g30
sa(dp122
g28
g11
sg21
V2
sg22
Vr
sg15
F3.067795991897583
sg23
g27
sg19
g20
sg14
I0
sg29
g30
sa(dp123
g28
g11
sg21
V2
sg22
Vr
sg15
F1.5146191120147705
sg23
g27
sg19
g20
sg14
I1
sg29
g30
sa(dp124
g28
g11
sg21
V2
sg22
Vr
sg15
F2.7563920021057129
sg23
g27
sg19
g20
sg14
I1
sg29
g30
sa(dp125
g28
g11
sg21
V2
sg22
Vr
sg15
F1.3517558574676514
sg23
g27
sg19
g20
sg14
I1
sg29
g30
sa(dp126
g28
g11
sg21
V2
sg22
Vr
sg15
F1.5330641269683838
sg23
g27
sg19
g20
sg14
I1
sg29
g30
sa(dp127
g28
g11
sg21
V2
sg22
Vr
sg15
F0.86432886123657227
sg23
g27
sg19
g20
sg14
I1
sg29
g30
sa(dp128
g28
g11
sg21
V2
sg22
Vr
sg15
F1.2974519729614258
sg23
g27
sg19
g20
sg14
I0
sg29
g30
sa(dp129
g28
g11
sg21
V2
sg22
Vr
sg15
F0.9432060718536377
sg23
g27
sg19
g20
sg14
I1
sg29
g30
sa(dp130
g28
g11
sg21
V2
sg22
Vr
sg15
F1.6498918533325195
sg23
g27
sg19
g20
sg14
I0
sg29
g30
sa(dp131
g28
g11
sg21
V2
sg22
Vr
sg15
F2.7389230728149414
sg23
g27
sg19
g20
sg14
I0
sg29
g30
sa(dp132
g28
g11
sg21
V2
sg22
Vr
sg15
F1.0822329521179199
sg23
g27
sg19
g20
sg14
I1
sg29
g30
sa(dp133
g28
g11
sg21
V2
sg22
Vr
sg15
F0.71404504776000977
sg23
g27
sg19
g20
sg14
I1
sg29
g30
sa(dp134
g28
g11
sg21
V2
sg22
Vr
sg15
F1.7848920822143555
sg23
g27
sg19
g20
sg14
I1
sg29
g30
sa(dp135
g28
g11
sg21
V2
sg22
Vr
sg15
F0.86359095573425293
sg23
g27
sg19
g20
sg14
I1
sg29
g30
sa(dp136
g28
g11
sg21
V2
sg22
Vr
sg15
F4.4883041381835938
sg23
g27
sg19
g20
sg14
I1
sg29
g30
sa(dp137
g28
g11
sg21
V2
sg22
Vr
sg15
F1.3121819496154785
sg23
g27
sg19
g20
sg14
I1
sg29
g30
sa(dp138
g28
g11
sg21
V2
sg22
Vr
sg15
F1.1973910331726074
sg23
g27
sg19
g20
sg14
I1
sg29
g30
sa(dp139
g28
g11
sg21
V2
sg22
Vr
sg15
F1.180750846862793
sg23
g27
sg19
g20
sg14
I1
sg29
g30
sa(dp140
g28
g11
sg21
V2
sg22
Vr
sg15
F1.6372520923614502
sg23
g27
sg19
g20
sg14
I1
sg29
g30
sa(dp141
g28
g11
sg21
V2
sg22
Vr
sg15
F1.1831820011138916
sg23
g27
sg19
g20
sg14
I1
sg29
g30
sa(dp142
g28
g11
sg21
V2
sg22
Vr
sg15
F1.9161319732666016
sg23
g27
sg19
g20
sg14
I1
sg29
g30
sa(dp143
g28
g11
sg21
V2
sg22
Vr
sg15
F1.1479790210723877
sg23
g27
sg19
g20
sg14
I1
sg29
g30
sa(dp144
g28
g11
sg21
V2
sg22
Vr
sg15
F1.9981701374053955
sg23
g27
sg19
g20
sg14
I1
sg29
g30
sa(dp145
g28
g11
sg21
V2
sg22
Vr
sg15
F2.5238139629364014
sg23
g27
sg19
g20
sg14
I1
sg29
g30
sa(dp146
g28
g11
sg21
V2
sg22
Vr
sg15
F0.90275216102600098
sg23
g27
sg19
g20
sg14
I1
sg29
g30
sa(dp147
g28
g11
sg21
V2
sg22
Vr
sg15
F0.81776595115661621
sg23
g27
sg19
g20
sg14
I1
sg29
g30
sa(dp148
g28
g11
sg21
V2
sg22
Vr
sg15
F1.36509108543396
sg23
g27
sg19
g20
sg14
I1
sg29
g30
sa(dp149
g28
g11
sg21
V2
sg22
Vr
sg15
F1.7987511157989502
sg23
g27
sg19
g20
sg14
I1
sg29
g30
sa(dp150
g28
g11
sg21
V2
sg22
Vr
sg15
F1.0390589237213135
sg23
g27
sg19
g20
sg14
I1
sg29
g30
sa(dp151
g28
g11
sg21
V2
sg22
Vr
sg15
F1.648184061050415
sg23
g27
sg19
g20
sg14
I1
sg29
g30
sa(dp152
g28
g11
sg21
V2
sg22
Vr
sg15
F2.1001541614532471
sg23
g27
sg19
g20
sg14
I0
sg29
g30
sa(dp153
g28
g11
sg21
V2
sg22
Vr
sg15
F1.4310328960418701
sg23
g27
sg19
g20
sg14
I1
sg29
g30
sa(dp154
g28
g11
sg21
V2
sg22
Vr
sg15
F0.98686003684997559
sg23
g27
sg19
g20
sg14
I1
sg29
g30
sa(dp155
g28
g11
sg21
V2
sg22
Vr
sg15
F0.83545899391174316
sg23
g27
sg19
g20
sg14
I1
sg29
g30
sa(dp156
g28
g11
sg21
V2
sg22
Vr
sg15
F1.5002181529998779
sg23
g27
sg19
g20
sg14
I1
sg29
g30
sa(dp157
g28
g11
sg21
V2
sg22
Vr
sg15
F1.6541800498962402
sg23
g27
sg19
g20
sg14
I1
sg29
g30
sa(dp158
g28
g11
sg21
V2
sg22
Vr
sg15
F3.1016659736633301
sg23
g27
sg19
g20
sg14
I1
sg29
g30
sa(dp159
g28
g11
sg21
V2
sg22
Vr
sg15
F0.81557297706604004
sg23
g27
sg19
g20
sg14
I1
sg29
g30
sa(dp160
g28
g11
sg21
V2
sg22
Vr
sg15
F0.79750418663024902
sg23
g27
sg19
g20
sg14
I1
sg29
g30
sa(dp161
g28
g11
sg21
V2
sg22
Vr
sg15
F0.84909701347351074
sg23
g27
sg19
g20
sg14
I1
sg29
g30
sa(dp162
g28
g11
sg21
V2
sg22
Vr
sg15
F0.86408305168151855
sg23
g27
sg19
g20
sg14
I1
sg29
g30
sa(dp163
g28
g11
sg21
V2
sg22
Vr
sg15
F3.2685599327087402
sg23
g27
sg19
g20
sg14
I0
sg29
g30
sa(dp164
g28
g11
sg21
V2
sg22
Vr
sg15
F1.3651919364929199
sg23
g27
sg19
g20
sg14
I1
sg29
g30
sa(dp165
g28
g11
sg21
V2
sg22
Vr
sg15
F1.234860897064209
sg23
g27
sg19
g20
sg14
I1
sg29
g30
sa(dp166
g28
g11
sg21
V2
sg22
Vr
sg15
F2.967339038848877
sg23
g27
sg19
g20
sg14
I0
sg29
g30
sa(dp167
g28
g11
sg21
V2
sg22
Vr
sg15
F2.7002389430999756
sg23
g27
sg19
g20
sg14
I0
sg29
g30
sa(dp168
g28
g11
sg21
V2
sg22
Vr
sg15
F2.2689309120178223
sg23
g27
sg19
g20
sg14
I0
sg29
g30
sa(dp169
g28
g11
sg21
V2
sg22
Vr
sg15
F2.2333300113677979
sg23
g27
sg19
g20
sg14
I1
sg29
g30
sa(dp170
g28
g11
sg21
V2
sg22
Vr
sg15
F1.1494541168212891
sg23
g27
sg19
g20
sg14
I1
sg29
g30
sa(dp171
g28
g11
sg21
V2
sg22
Vr
sg15
F0.94790315628051758
sg23
g27
sg19
g20
sg14
I0
sg29
g30
sa(dp172
g28
g11
sg21
V2
sg22
Vr
sg15
F1.3799169063568115
sg23
g27
sg19
g20
sg14
I1
sg29
g30
sa(dp173
g28
g11
sg21
V2
sg22
Vr
sg15
F2.8347489833831787
sg23
g27
sg19
g20
sg14
I0
sg29
g30
sa(dp174
g28
g11
sg21
V2
sg22
Vr
sg15
F3.0524091720581055
sg23
g27
sg19
g20
sg14
I1
sg29
g30
sa(dp175
g28
g11
sg21
V2
sg22
Vr
sg15
F2.0011200904846191
sg23
g27
sg19
g20
sg14
I1
sg29
g30
sa(dp176
g28
g11
sg21
V2
sg22
Vr
sg15
F1.6986439228057861
sg23
g27
sg19
g20
sg14
I1
sg29
g30
sa(dp177
g28
g11
sg21
V2
sg22
Vr
sg15
F3.074368953704834
sg23
g27
sg19
g20
sg14
I0
sg29
g30
sa(dp178
g28
g11
sg21
V2
sg22
Vr
sg15
F1.6045219898223877
sg23
g27
sg19
g20
sg14
I1
sg29
g30
sa(dp179
g28
g11
sg21
V2
sg22
Vr
sg15
F0.79886603355407715
sg23
g27
sg19
g20
sg14
I1
sg29
g30
sa(dp180
g28
g11
sg21
V2
sg22
Vr
sg15
F1.532045841217041
sg23
g27
sg19
g20
sg14
I1
sg29
g30
sa(dp181
g28
g11
sg21
V2
sg22
Vr
sg15
F1.2984969615936279
sg23
g27
sg19
g20
sg14
I1
sg29
g30
sa(dp182
g28
g11
sg21
V2
sg22
Vr
sg15
F2.3228530883789062
sg23
g27
sg19
g20
sg14
I1
sg29
g30
sa(dp183
g28
g11
sg21
V2
sg22
Vr
sg15
F3.9732060432434082
sg23
g27
sg19
g20
sg14
I1
sg29
g30
sa(dp184
g28
g11
sg21
V2
sg22
Vr
sg15
F2.9331459999084473
sg23
g27
sg19
g20
sg14
I1
sg29
g30
sa(dp185
g28
g11
sg21
V2
sg22
Vr
sg15
F1.2488248348236084
sg23
g27
sg19
g20
sg14
I1
sg29
g30
sa(dp186
g28
g11
sg21
V2
sg22
Vr
sg15
F3.5901741981506348
sg23
g27
sg19
g20
sg14
I1
sg29
g30
sa(dp187
g28
g11
sg21
V2
sg22
Vr
sg15
F2.0545940399169922
sg23
g27
sg19
g20
sg14
I1
sg29
g30
sa(dp188
g28
g11
sg21
V2
sg22
Vr
sg15
F5.158257007598877
sg23
g27
sg19
g20
sg14
I1
sg29
g30
sa(dp189
g28
g11
sg21
V2
sg22
Vr
sg15
F1.0814039707183838
sg23
g27
sg19
g20
sg14
I1
sg29
g30
sa(dp190
g28
g11
sg21
V2
sg22
Vr
sg15
F0.8797919750213623
sg23
g27
sg19
g20
sg14
I1
sg29
g30
sa(dp191
g28
g11
sg21
V2
sg22
Vr
sg15
F1.1711850166320801
sg23
g27
sg19
g20
sg14
I1
sg29
g30
sa(dp192
g28
g11
sg21
V2
sg22
Vr
sg15
F1.1480469703674316
sg23
g27
sg19
g20
sg14
I1
sg29
g30
sa(dp193
g28
g11
sg21
V2
sg22
Vr
sg15
F1.8331298828125
sg23
g27
sg19
g20
sg14
I1
sg29
g30
sa(dp194
g28
g11
sg21
V2
sg22
Vr
sg15
F1.297152042388916
sg23
g27
sg19
g20
sg14
I1
sg29
g30
sa(dp195
g28
g11
sg21
V2
sg22
Vr
sg15
F0.89663195610046387
sg23
g27
sg19
g20
sg14
I1
sg29
g30
sa(dp196
g28
g11
sg21
V2
sg22
Vr
sg15
F1.532228946685791
sg23
g27
sg19
g20
sg14
I1
sg29
g30
sa(dp197
g28
g11
sg21
V2
sg22
Vr
sg15
F1.8912460803985596
sg23
g27
sg19
g20
sg14
I1
sg29
g30
sa(dp198
g28
g11
sg21
V2
sg22
Vr
sg15
F3.2197818756103516
sg23
g27
sg19
g20
sg14
I1
sg29
g30
sa(dp199
g28
g11
sg21
V2
sg22
Vr
sg15
F5.6389119625091553
sg23
g27
sg19
g20
sg14
I1
sg29
g30
sa(dp200
g28
g11
sg21
V2
sg22
Vr
sg15
F1.38205885887146
sg23
g27
sg19
g20
sg14
I1
sg29
g30
sa(dp201
g28
g11
sg21
V2
sg22
Vr
sg15
F2.7361419200897217
sg23
g27
sg19
g20
sg14
I0
sg29
g30
sa(dp202
g28
g11
sg21
V2
sg22
Vr
sg15
F1.7546288967132568
sg23
g27
sg19
g20
sg14
I1
sg29
g30
sa(dp203
g28
g11
sg21
V2
sg22
Vr
sg15
F2.417384147644043
sg23
g27
sg19
g20
sg14
I0
sg29
g30
sa(dp204
g28
g11
sg21
V2
sg22
Vr
sg15
F1.1316959857940674
sg23
g27
sg19
g20
sg14
I1
sg29
g30
sa(dp205
g28
g11
sg21
V2
sg22
Vr
sg15
F1.5319619178771973
sg23
g27
sg19
g20
sg14
I1
sg29
g30
sa(dp206
g28
g11
sg21
V2
sg22
Vr
sg15
F1.1639249324798584
sg23
g27
sg19
g20
sg14
I1
sg29
g30
sa(dp207
g28
g11
sg21
V2
sg22
Vr
sg15
F2.6687090396881104
sg23
g27
sg19
g20
sg14
I0
sg29
g30
sa(dp208
g28
g11
sg21
V2
sg22
Vr
sg15
F1.3981781005859375
sg23
g27
sg19
g20
sg14
I1
sg29
g30
sa(dp209
g28
g11
sg21
V2
sg22
Vr
sg15
F4.5103399753570557
sg23
g27
sg19
g20
sg14
I1
sg29
g30
sa(dp210
g28
g11
sg21
V2
sg22
Vr
sg15
F1.884544849395752
sg23
g27
sg19
g20
sg14
I1
sg29
g30
sa(dp211
g28
g11
sg21
V2
sg22
Vr
sg15
F2.7512950897216797
sg23
g27
sg19
g20
sg14
I1
sg29
g30
sa(dp212
g28
g11
sg21
V2
sg22
Vr
sg15
F0.81329584121704102
sg23
g27
sg19
g20
sg14
I1
sg29
g30
sa(dp213
g28
g11
sg21
V2
sg22
Vr
sg15
F1.5924100875854492
sg23
g27
sg19
g20
sg14
I1
sg29
g30
sa(dp214
g28
g11
sg21
V2
sg22
Vr
sg15
F0.84893798828125
sg23
g27
sg19
g20
sg14
I1
sg29
g30
sa(dp215
g28
g11
sg21
V2
sg22
Vr
sg15
F2.7064361572265625
sg23
g27
sg19
g20
sg14
I1
sg29
g30
sa(dp216
g28
g11
sg21
V2
sg22
Vr
sg15
F1.4312229156494141
sg23
g27
sg19
g20
sg14
I0
sg29
g30
sa(dp217
g28
g11
sg21
V2
sg22
Vr
sg15
F2.718843936920166
sg23
g27
sg19
g20
sg14
I0
sg29
g30
sa(dp218
g28
g11
sg21
V2
sg22
Vr
sg15
F1.0145010948181152
sg23
g27
sg19
g20
sg14
I1
sg29
g30
sa(dp219
g28
g11
sg21
V2
sg22
Vr
sg15
F1.9062950611114502
sg23
g27
sg19
g20
sg14
I1
sg29
g30
sa(dp220
g28
g11
sg21
V2
sg22
Vr
sg15
F2.8708291053771973
sg23
g27
sg19
g20
sg14
I0
sg29
g30
sa(dp221
g28
g11
sg21
V2
sg22
Vr
sg15
F0.99942421913146973
sg23
g27
sg19
g20
sg14
I1
sg29
g30
sa(dp222
g28
g11
sg21
V2
sg22
Vr
sg15
F1.3708798885345459
sg23
g27
sg19
g20
sg14
I1
sg29
g30
sa(dp223
g28
g11
sg21
V2
sg22
Vr
sg15
F1.7545430660247803
sg23
g27
sg19
g20
sg14
I1
sg29
g30
sa(dp224
g28
g11
sg21
V2
sg22
Vr
sg15
F1.8624279499053955
sg23
g27
sg19
g20
sg14
I1
sg29
g30
sa(dp225
g28
g11
sg21
V2
sg22
Vr
sg15
F0.98076081275939941
sg23
g27
sg19
g20
sg14
I1
sg29
g30
sa(dp226
g28
g11
sg21
V2
sg22
Vr
sg15
F2.4198060035705566
sg23
g27
sg19
g20
sg14
I0
sg29
g30
sa(dp227
g28
g11
sg21
V2
sg22
Vr
sg15
F2.2840569019317627
sg23
g27
sg19
g20
sg14
I1
sg29
g30
sa(dp228
g28
g11
sg21
V2
sg22
Vr
sg15
F1.2874228954315186
sg23
g27
sg19
g20
sg14
I1
sg29
g30
sa(dp229
g28
g11
sg21
V2
sg22
Vr
sg15
F1.114037036895752
sg23
g27
sg19
g20
sg14
I1
sg29
g30
sa(dp230
g28
g11
sg21
V2
sg22
Vr
sg15
F1.2503218650817871
sg23
g27
sg19
g20
sg14
I1
sg29
g30
sa(dp231
g28
g11
sg21
V2
sg22
Vr
sg15
F1.0165848731994629
sg23
g27
sg19
g20
sg14
I1
sg29
g30
sa(dp232
g28
g11
sg21
V2
sg22
Vr
sg15
F14.96473503112793
sg23
g27
sg19
g20
sg14
I1
sg29
g30
sa(dp233
g28
g11
sg21
V2
sg22
Vr
sg15
F1.1160340309143066
sg23
g27
sg19
g20
sg14
I1
sg29
g30
sa(dp234
g28
g11
sg21
V2
sg22
Vr
sg15
F2.1953108310699463
sg23
g27
sg19
g20
sg14
I1
sg29
g30
sa(dp235
g28
g11
sg21
V2
sg22
Vr
sg15
F2.1005139350891113
sg23
g27
sg19
g20
sg14
I1
sg29
g30
sa(dp236
g28
g11
sg21
V2
sg22
Vr
sg15
F2.0052011013031006
sg23
g27
sg19
g20
sg14
I1
sg29
g30
sa(dp237
g28
g11
sg21
V2
sg22
Vr
sg15
F1.7825620174407959
sg23
g27
sg19
g20
sg14
I1
sg29
g30
sa(dp238
g28
g11
sg21
V2
sg22
Vr
sg15
F2.7865679264068604
sg23
g27
sg19
g20
sg14
I0
sg29
g30
sa(dp239
g28
g11
sg21
V2
sg22
Vr
sg15
F2.6830089092254639
sg23
g27
sg19
g20
sg14
I1
sg29
g30
sa(dp240
g28
g11
sg21
V2
sg22
Vr
sg15
F1.9158060550689697
sg23
g27
sg19
g20
sg14
I1
sg29
g30
sa(dp241
g28
g11
sg21
V2
sg22
Vr
sg15
F2.0833280086517334
sg23
g27
sg19
g20
sg14
I1
sg29
g30
sa(dp242
g28
g11
sg21
V2
sg22
Vr
sg15
F1.0314760208129883
sg23
g27
sg19
g20
sg14
I1
sg29
g30
sa(dp243
g28
g11
sg21
V2
sg22
Vr
sg15
F1.2655351161956787
sg23
g27
sg19
g20
sg14
I1
sg29
g30
sa(dp244
g28
g11
sg21
V2
sg22
Vr
sg15
F1.4505579471588135
sg23
g27
sg19
g20
sg14
I1
sg29
g30
sa(dp245
g28
g11
sg21
V2
sg22
Vr
sg15
F1.3833408355712891
sg23
g27
sg19
g20
sg14
I1
sg29
g30
sa(dp246
g28
g11
sg21
V2
sg22
Vr
sg15
F2.0819621086120605
sg23
g27
sg19
g20
sg14
I0
sg29
g30
sa(dp247
g28
g11
sg21
V2
sg22
Vr
sg15
F3.2534739971160889
sg23
g27
sg19
g20
sg14
I1
sg29
g30
sa(dp248
g28
g11
sg21
V2
sg22
Vr
sg15
F1.2552800178527832
sg23
g27
sg19
g20
sg14
I1
sg29
g30
sa(dp249
g28
g11
sg21
V2
sg22
Vr
sg15
F1.5819752216339111
sg23
g27
sg19
g20
sg14
I1
sg29
g30
sa(dp250
g28
g11
sg21
V2
sg22
Vr
sg15
F1.0986118316650391
sg23
g27
sg19
g20
sg14
I1
sg29
g30
sa(dp251
g28
g11
sg21
V2
sg22
Vr
sg15
F2.4663310050964355
sg23
g27
sg19
g20
sg14
I1
sg29
g30
sa(dp252
g28
g11
sg21
V2
sg22
Vr
sg15
F1.6817190647125244
sg23
g27
sg19
g20
sg14
I1
sg29
g30
sa(dp253
g28
g11
sg21
V2
sg22
Vr
sg15
F1.8668699264526367
sg23
g27
sg19
g20
sg14
I1
sg29
g30
sa(dp254
g28
g11
sg21
V2
sg22
Vr
sg15
F0.98802900314331055
sg23
g27
sg19
g20
sg14
I1
sg29
g30
sa(dp255
g28
g11
sg21
V2
sg22
Vr
sg15
F1.5387349128723145
sg23
g27
sg19
g20
sg14
I1
sg29
g30
sa(dp256
g28
g11
sg21
V2
sg22
Vr
sg15
F1.2830290794372559
sg23
g27
sg19
g20
sg14
I1
sg29
g30
sa(dp257
g28
g11
sg21
V2
sg22
Vr
sg15
F0.95037102699279785
sg23
g27
sg19
g20
sg14
I1
sg29
g30
sa(dp258
g28
g11
sg21
V2
sg22
Vr
sg15
F0.84568905830383301
sg23
g27
sg19
g20
sg14
I1
sg29
g30
sa(dp259
g28
g11
sg21
V2
sg22
Vr
sg15
F1.6317410469055176
sg23
g27
sg19
g20
sg14
I1
sg29
g30
sa(dp260
g28
g11
sg21
V2
sg22
Vr
sg15
F1.6475300788879395
sg23
g27
sg19
g20
sg14
I1
sg29
g30
sa(dp261
g28
g11
sg21
V2
sg22
Vr
sg15
F0.93452882766723633
sg23
g27
sg19
g20
sg14
I1
sg29
g30
sa(dp262
g28
g11
sg21
V2
sg22
Vr
sg15
F1.5834369659423828
sg23
g27
sg19
g20
sg14
I1
sg29
g30
sa(dp263
g28
g11
sg21
V2
sg22
Vr
sg15
F1.4485139846801758
sg23
g27
sg19
g20
sg14
I1
sg29
g30
sa(dp264
g28
g11
sg21
V2
sg22
Vr
sg15
F2.8200221061706543
sg23
g27
sg19
g20
sg14
I0
sg29
g30
sa(dp265
g28
g11
sg21
V2
sg22
Vr
sg15
F0.947113037109375
sg23
g27
sg19
g20
sg14
I1
sg29
g30
sa(dp266
g28
g11
sg21
V2
sg22
Vr
sg15
F2.3862121105194092
sg23
g27
sg19
g20
sg14
I1
sg29
g30
sa(dp267
g28
g11
sg21
V2
sg22
Vr
sg15
F1.7473609447479248
sg23
g27
sg19
g20
sg14
I0
sg29
g30
sa(dp268
g28
g11
sg21
V2
sg22
Vr
sg15
F1.2208869457244873
sg23
g27
sg19
g20
sg14
I1
sg29
g30
sa(dp269
g28
g11
sg21
V2
sg22
Vr
sg15
F1.9460940361022949
sg23
g27
sg19
g20
sg14
I1
sg29
g30
sa(dp270
g28
g11
sg21
V2
sg22
Vr
sg15
F1.1655361652374268
sg23
g27
sg19
g20
sg14
I1
sg29
g30
sa(dp271
g28
g11
sg21
V2
sg22
Vr
sg15
F1.7314159870147705
sg23
g27
sg19
g20
sg14
I1
sg29
g30
sa(dp272
g28
g11
sg21
V2
sg22
Vr
sg15
F2.4009008407592773
sg23
g27
sg19
g20
sg14
I0
sg29
g30
sa(dp273
g28
g11
sg21
V2
sg22
Vr
sg15
F1.3815159797668457
sg23
g27
sg19
g20
sg14
I1
sg29
g30
sa(dp274
g28
g11
sg21
V2
sg22
Vr
sg15
F1.3979141712188721
sg23
g27
sg19
g20
sg14
I0
sg29
g30
sa(dp275
g28
g11
sg21
V2
sg22
Vr
sg15
F0.77078795433044434
sg23
g27
sg19
g20
sg14
I1
sg29
g30
sa(dp276
g28
g11
sg21
V2
sg22
Vr
sg15
F1.1355340480804443
sg23
g27
sg19
g20
sg14
I1
sg29
g30
sa(dp277
g28
g11
sg21
V2
sg22
Vr
sg15
F1.9340648651123047
sg23
g27
sg19
g20
sg14
I0
sg29
g30
sa(dp278
g28
g11
sg21
V2
sg22
Vr
sg15
F1.3494658470153809
sg23
g27
sg19
g20
sg14
I1
sg29
g30
sa(dp279
g28
g11
sg21
V2
sg22
Vr
sg15
F1.9165811538696289
sg23
g27
sg19
g20
sg14
I1
sg29
g30
sa(dp280
g28
g11
sg21
V2
sg22
Vr
sg15
F2.0337061882019043
sg23
g27
sg19
g20
sg14
I1
sg29
g30
sa(dp281
g28
g11
sg21
V2
sg22
Vr
sg15
F1.7994909286499023
sg23
g27
sg19
g20
sg14
I1
sg29
g30
sa(dp282
g28
g11
sg21
V2
sg22
Vr
sg15
F1.5533750057220459
sg23
g27
sg19
g20
sg14
I0
sg29
g30
sa(dp283
g28
g11
sg21
V2
sg22
Vr
sg15
F1.7013869285583496
sg23
g27
sg19
g20
sg14
I1
sg29
g30
sa(dp284
g28
g11
sg21
V2
sg22
Vr
sg15
F3.7539899349212646
sg23
g27
sg19
g20
sg14
I0
sg29
g30
sa(dp285
g28
g11
sg21
V2
sg22
Vr
sg15
F3.468735933303833
sg23
g27
sg19
g20
sg14
I1
sg29
g30
sa(dp286
g28
g11
sg21
V2
sg22
Vr
sg15
F1.5474481582641602
sg23
g27
sg19
g20
sg14
I1
sg29
g30
sa(dp287
g28
g11
sg21
V2
sg22
Vr
sg15
F1.9027819633483887
sg23
g27
sg19
g20
sg14
I1
sg29
g30
sa(dp288
g28
g11
sg21
V2
sg22
Vr
sg15
F3.0860769748687744
sg23
g27
sg19
g20
sg14
I0
sg29
g30
sa(dp289
g28
g11
sg21
V2
sg22
Vr
sg15
F2.3006219863891602
sg23
g27
sg19
g20
sg14
I1
sg29
g30
sa(dp290
g28
g11
sg21
V2
sg22
Vr
sg15
F1.3809511661529541
sg23
g27
sg19
g20
sg14
I1
sg29
g30
sa(dp291
g28
g11
sg21
V2
sg22
Vr
sg15
F2.6161601543426514
sg23
g27
sg19
g20
sg14
I1
sg29
g30
sa(dp292
g28
g11
sg21
V2
sg22
Vr
sg15
F1.5372869968414307
sg23
g27
sg19
g20
sg14
I1
sg29
g30
sa(dp293
g28
g11
sg21
V2
sg22
Vr
sg15
F1.2367289066314697
sg23
g27
sg19
g20
sg14
I1
sg29
g30
sa(dp294
g28
g11
sg21
V2
sg22
Vr
sg15
F1.2470412254333496
sg23
g27
sg19
g20
sg14
I1
sg29
g30
sa(dp295
g28
g11
sg21
V2
sg22
Vr
sg15
F0.88029789924621582
sg23
g27
sg19
g20
sg14
I1
sg29
g30
sa(dp296
g28
g11
sg21
V2
sg22
Vr
sg15
F1.3110811710357666
sg23
g27
sg19
g20
sg14
I1
sg29
g30
sa(dp297
g28
g11
sg21
V2
sg22
Vr
sg15
F1.1464569568634033
sg23
g27
sg19
g20
sg14
I1
sg29
g30
sa(dp298
g28
g11
sg21
V2
sg22
Vr
sg15
F2.9586901664733887
sg23
g27
sg19
g20
sg14
I0
sg29
g30
sa(dp299
g28
g11
sg21
V2
sg22
Vr
sg15
F1.1638219356536865
sg23
g27
sg19
g20
sg14
I1
sg29
g30
sa(dp300
g28
g11
sg21
V2
sg22
Vr
sg15
F2.0342710018157959
sg23
g27
sg19
g20
sg14
I1
sg29
g30
sa(dp301
g28
g11
sg21
V2
sg22
Vr
sg15
F2.503986120223999
sg23
g27
sg19
g20
sg14
I1
sg29
g30
sa(dp302
g28
g11
sg21
V2
sg22
Vr
sg15
F1.5320808887481689
sg23
g27
sg19
g20
sg14
I1
sg29
g30
sa(dp303
g28
g11
sg21
V2
sg22
Vr
sg15
F1.4819750785827637
sg23
g27
sg19
g20
sg14
I0
sg29
g30
sa(dp304
g28
g11
sg21
V2
sg22
Vr
sg15
F1.4194498062133789
sg23
g27
sg19
g20
sg14
I0
sg29
g30
sa(dp305
g28
g11
sg21
V2
sg22
Vr
sg15
F1.598895788192749
sg23
g27
sg19
g20
sg14
I1
sg29
g30
sa(dp306
g28
g11
sg21
V2
sg22
Vr
sg15
F1.2503418922424316
sg23
g27
sg19
g20
sg14
I1
sg29
g30
sa(dp307
g28
g11
sg21
V2
sg22
Vr
sg15
F1.7992408275604248
sg23
g27
sg19
g20
sg14
I1
sg29
g30
sa(dp308
g28
g11
sg21
V2
sg22
Vr
sg15
F2.3409898281097412
sg23
g27
sg19
g20
sg14
I1
sg29
g30
sa(dp309
g28
g11
sg21
V2
sg22
Vr
sg15
F2.2045650482177734
sg23
g27
sg19
g20
sg14
I1
sg29
g30
sa(dp310
g28
g11
sg21
V2
sg22
Vr
sg15
F1.5161728858947754
sg23
g27
sg19
g20
sg14
I1
sg29
g30
sa(dp311
g28
g11
sg21
V2
sg22
Vr
sg15
F1.8491370677947998
sg23
g27
sg19
g20
sg14
I1
sg29
g30
sa(dp312
g28
g11
sg21
V2
sg22
Vr
sg15
F1.3993041515350342
sg23
g27
sg19
g20
sg14
I1
sg29
g30
sa(dp313
g28
g11
sg21
V2
sg22
Vr
sg15
F1.5492711067199707
sg23
g27
sg19
g20
sg14
I1
sg29
g30
sa(dp314
g28
g11
sg21
V2
sg22
Vr
sg15
F1.9897170066833496
sg23
g27
sg19
g20
sg14
I1
sg29
g30
sa(dp315
g28
g11
sg21
V2
sg22
Vr
sg15
F1.602816104888916
sg23
g27
sg19
g20
sg14
I1
sg29
g30
sa(dp316
g28
g11
sg21
V2
sg22
Vr
sg15
F2.7653400897979736
sg23
g27
sg19
g20
sg14
I0
sg29
g30
sa(dp317
g28
g11
sg21
V2
sg22
Vr
sg15
F0.84715414047241211
sg23
g27
sg19
g20
sg14
I1
sg29
g30
sa(dp318
g28
g11
sg21
V2
sg22
Vr
sg15
F0.97329401969909668
sg23
g27
sg19
g20
sg14
I1
sg29
g30
sa(dp319
g28
g11
sg21
V2
sg22
Vr
sg15
F1.9702610969543457
sg23
g27
sg19
g20
sg14
I0
sg29
g30
sa(dp320
g28
g11
sg21
V2
sg22
Vr
sg15
F1.4486269950866699
sg23
g27
sg19
g20
sg14
I0
sg29
g30
sa(dp321
g28
g11
sg21
V2
sg22
Vr
sg15
F1.2494449615478516
sg23
g27
sg19
g20
sg14
I1
sg29
g30
sa(dp322
g28
g11
sg21
V2
sg22
Vr
sg15
F0.86435294151306152
sg23
g27
sg19
g20
sg14
I1
sg29
g30
sa(dp323
g28
g11
sg21
V2
sg22
Vr
sg15
F3.2947289943695068
sg23
g27
sg19
g20
sg14
I0
sg29
g30
sa(dp324
g28
g11
sg21
V2
sg22
Vr
sg15
F1.6378369331359863
sg23
g27
sg19
g20
sg14
I1
sg29
g30
sa(dp325
g28
g11
sg21
V2
sg22
Vr
sg15
F0.94622993469238281
sg23
g27
sg19
g20
sg14
I1
sg29
g30
sa(dp326
g28
g11
sg21
V2
sg22
Vr
sg15
F1.4485199451446533
sg23
g27
sg19
g20
sg14
I1
sg29
g30
sa(dp327
g28
g11
sg21
V2
sg22
Vr
sg15
F3.6354880332946777
sg23
g27
sg19
g20
sg14
I0
sg29
g30
sa(dp328
g28
g11
sg21
V2
sg22
Vr
sg15
F1.8180100917816162
sg23
g27
sg19
g20
sg14
I0
sg29
g30
sa(dp329
g28
g11
sg21
V2
sg22
Vr
sg15
F1.7000691890716553
sg23
g27
sg19
g20
sg14
I1
sg29
g30
sa(dp330
g28
g11
sg21
V2
sg22
Vr
sg15
F0.89763188362121582
sg23
g27
sg19
g20
sg14
I1
sg29
g30
sa(dp331
g28
g11
sg21
V2
sg22
Vr
sg15
F1.1203658580780029
sg23
g27
sg19
g20
sg14
I1
sg29
g30
sa(dp332
g28
g11
sg21
V2
sg22
Vr
sg15
F1.5043082237243652
sg23
g27
sg19
g20
sg14
I1
sg29
g30
sa(dp333
g28
g11
sg21
V2
sg22
Vr
sg15
F2.1010239124298096
sg23
g27
sg19
g20
sg14
I1
sg29
g30
sa(dp334
g28
g11
sg21
V2
sg22
Vr
sg15
F1.8641948699951172
sg23
g27
sg19
g20
sg14
I0
sg29
g30
sa(dp335
g28
g11
sg21
V2
sg22
Vr
sg15
F2.2992751598358154
sg23
g27
sg19
g20
sg14
I1
sg29
g30
sa(dp336
g28
g11
sg21
V2
sg22
Vr
sg15
F2.433215856552124
sg23
g27
sg19
g20
sg14
I1
sg29
g30
sa(dp337
g28
g11
sg21
V2
sg22
Vr
sg15
F0.84783506393432617
sg23
g27
sg19
g20
sg14
I1
sg29
g30
sa(dp338
g28
g11
sg21
V2
sg22
Vr
sg15
F0.86907291412353516
sg23
g27
sg19
g20
sg14
I1
sg29
g30
sa(dp339
g28
g11
sg21
V2
sg22
Vr
sg15
F1.1464221477508545
sg23
g27
sg19
g20
sg14
I1
sg29
g30
sa(dp340
g28
g11
sg21
V2
sg22
Vr
sg15
F1.5182089805603027
sg23
g27
sg19
g20
sg14
I1
sg29
g30
sa(dp341
g28
g11
sg21
V2
sg22
Vr
sg15
F1.531627893447876
sg23
g27
sg19
g20
sg14
I0
sg29
g30
sa(dp342
g28
g11
sg21
V2
sg22
Vr
sg15
F0.89803218841552734
sg23
g27
sg19
g20
sg14
I1
sg29
g30
sa(dp343
g28
g11
sg21
V2
sg22
Vr
sg15
F1.8609979152679443
sg23
g27
sg19
g20
sg14
I1
sg29
g30
sa(dp344
g28
g11
sg21
V2
sg22
Vr
sg15
F1.0152208805084229
sg23
g27
sg19
g20
sg14
I1
sg29
g30
sa(dp345
g28
g11
sg21
V2
sg22
Vr
sg15
F2.8171191215515137
sg23
g27
sg19
g20
sg14
I1
sg29
g30
sa(dp346
g28
g11
sg21
V2
sg22
Vr
sg15
F1.2657120227813721
sg23
g27
sg19
g20
sg14
I1
sg29
g30
sa(dp347
g28
g11
sg21
V2
sg22
Vr
sg15
F2.390545129776001
sg23
g27
sg19
g20
sg14
I0
sg29
g30
sa(dp348
g28
g11
sg21
V2
sg22
Vr
sg15
F1.6335940361022949
sg23
g27
sg19
g20
sg14
I1
sg29
g30
sa(dp349
g28
g11
sg21
V2
sg22
Vr
sg15
F2.5678830146789551
sg23
g27
sg19
g20
sg14
I1
sg29
g30
sa(dp350
g28
g11
sg21
V2
sg22
Vr
sg15
F1.9494049549102783
sg23
g27
sg19
g20
sg14
I1
sg29
g30
sa(dp351
g28
g11
sg21
V2
sg22
Vr
sg15
F0.96497893333435059
sg23
g27
sg19
g20
sg14
I1
sg29
g30
sa(dp352
g28
g11
sg21
V2
sg22
Vr
sg15
F0.76543593406677246
sg23
g27
sg19
g20
sg14
I1
sg29
g30
sa(dp353
g28
g11
sg21
V2
sg22
Vr
sg15
F0.94674587249755859
sg23
g27
sg19
g20
sg14
I1
sg29
g30
sa(dp354
g28
g11
sg21
V2
sg22
Vr
sg15
F1.0296788215637207
sg23
g27
sg19
g20
sg14
I1
sg29
g30
sa(dp355
g28
g11
sg21
V2
sg22
Vr
sg15
F1.0150179862976074
sg23
g27
sg19
g20
sg14
I1
sg29
g30
sa(dp356
g28
g11
sg21
V2
sg22
Vr
sg15
F1.5994307994842529
sg23
g27
sg19
g20
sg14
I1
sg29
g30
sa(dp357
g28
g11
sg21
V2
sg22
Vr
sg15
F0.74774694442749023
sg23
g27
sg19
g20
sg14
I1
sg29
g30
sa(dp358
g28
g11
sg21
V2
sg22
Vr
sg15
F2.7837908267974854
sg23
g27
sg19
g20
sg14
I1
sg29
g30
sa(dp359
g28
g11
sg21
V2
sg22
Vr
sg15
F2.6365649700164795
sg23
g27
sg19
g20
sg14
I0
sg29
g30
sa(dp360
g28
g11
sg21
V2
sg22
Vr
sg15
F1.1641499996185303
sg23
g27
sg19
g20
sg14
I1
sg29
g30
sa(dp361
g28
g11
sg21
V2
sg22
Vr
sg15
F1.8341178894042969
sg23
g27
sg19
g20
sg14
I0
sg29
g30
sa(dp362
g28
g11
sg21
V2
sg22
Vr
sg15
F1.6128029823303223
sg23
g27
sg19
g20
sg14
I0
sg29
g30
sa(dp363
g28
g11
sg21
V2
sg22
Vr
sg15
F2.9714729785919189
sg23
g27
sg19
g20
sg14
I0
sg29
g30
sa(dp364
g28
g11
sg21
V2
sg22
Vr
sg15
F2.1168351173400879
sg23
g27
sg19
g20
sg14
I1
sg29
g30
sa(dp365
g28
g11
sg21
V2
sg22
Vr
sg15
F1.0671420097351074
sg23
g27
sg19
g20
sg14
I1
sg29
g30
sa(dp366
g28
g11
sg21
V2
sg22
Vr
sg15
F3.330380916595459
sg23
g27
sg19
g20
sg14
I1
sg29
g30
sa(dp367
g28
g11
sg21
V2
sg22
Vr
sg15
F3.3084650039672852
sg23
g27
sg19
g20
sg14
I0
sg29
g30
sa(dp368
g28
g11
sg21
V2
sg22
Vr
sg15
F2.2332079410552979
sg23
g27
sg19
g20
sg14
I0
sg29
g30
sa(dp369
g28
g11
sg21
V2
sg22
Vr
sg15
F3.3022301197052002
sg23
g27
sg19
g20
sg14
I1
sg29
g30
sa(dp370
g28
g11
sg21
V2
sg22
Vr
sg15
F1.9646279811859131
sg23
g27
sg19
g20
sg14
I0
sg29
g30
sa(dp371
g28
g11
sg21
V2
sg22
Vr
sg15
F2.9166660308837891
sg23
g27
sg19
g20
sg14
I1
sg29
g30
sa(dp372
g28
g11
sg21
V2
sg22
Vr
sg15
F0.88881802558898926
sg23
g27
sg19
g20
sg14
I1
sg29
g30
sa(dp373
g28
g11
sg21
V2
sg22
Vr
sg15
F1.3714950084686279
sg23
g27
sg19
g20
sg14
I1
sg29
g30
sa(dp374
g28
g11
sg21
V2
sg22
Vr
sg15
F1.5849030017852783
sg23
g27
sg19
g20
sg14
I1
sg29
g30
sa(dp375
g28
g11
sg21
V2
sg22
Vr
sg15
F1.3148610591888428
sg23
g27
sg19
g20
sg14
I1
sg29
g30
sa(dp376
g28
g11
sg21
V2
sg22
Vr
sg15
F2.2158019542694092
sg23
g27
sg19
g20
sg14
I0
sg29
g30
sa(dp377
g28
g11
sg21
V2
sg22
Vr
sg15
F1.2973408699035645
sg23
g27
sg19
g20
sg14
I1
sg29
g30
sa(dp378
g28
g11
sg21
V2
sg22
Vr
sg15
F3.0016999244689941
sg23
g27
sg19
g20
sg14
I1
sg29
g30
sa(dp379
g28
g11
sg21
V2
sg22
Vr
sg15
F1.1513049602508545
sg23
g27
sg19
g20
sg14
I1
sg29
g30
sa(dp380
g28
g11
sg21
V2
sg22
Vr
sg15
F1.5848488807678223
sg23
g27
sg19
g20
sg14
I1
sg29
g30
sa(dp381
g28
g11
sg21
V2
sg22
Vr
sg15
F2.7900130748748779
sg23
g27
sg19
g20
sg14
I0
sg29
g30
sa(dp382
g28
g11
sg21
V2
sg22
Vr
sg15
F1.4286589622497559
sg23
g27
sg19
g20
sg14
I1
sg29
g30
sa(dp383
g28
g11
sg21
V2
sg22
Vr
sg15
F1.7854340076446533
sg23
g27
sg19
g20
sg14
I0
sg29
g30
sa(dp384
g28
g11
sg21
V2
sg22
Vr
sg15
F2.2330400943756104
sg23
g27
sg19
g20
sg14
I1
sg29
g30
sa(dp385
g28
g11
sg21
V2
sg22
Vr
sg15
F1.6481490135192871
sg23
g27
sg19
g20
sg14
I1
sg29
g30
sa(dp386
g28
g11
sg21
V2
sg22
Vr
sg15
F1.9526331424713135
sg23
g27
sg19
g20
sg14
I1
sg29
g30
sa(dp387
g28
g11
sg21
V2
sg22
Vr
sg15
F1.4045488834381104
sg23
g27
sg19
g20
sg14
I1
sg29
g30
sa(dp388
g28
g11
sg21
V2
sg22
Vr
sg15
F1.7882339954376221
sg23
g27
sg19
g20
sg14
I1
sg29
g30
sa(dp389
g28
g11
sg21
V2
sg22
Vr
sg15
F1.6316349506378174
sg23
g27
sg19
g20
sg14
I1
sg29
g30
sa(dp390
g28
g11
sg21
V2
sg22
Vr
sg15
F1.0806958675384521
sg23
g27
sg19
g20
sg14
I0
sg29
g30
sa(dp391
g28
g11
sg21
V2
sg22
Vr
sg15
F1.732712984085083
sg23
g27
sg19
g20
sg14
I1
sg29
g30
sa(dp392
g28
g11
sg21
V2
sg22
Vr
sg15
F13.806986093521118
sg23
g27
sg19
g20
sg14
I1
sg29
g30
sa(dp393
g28
g11
sg21
V2
sg22
Vr
sg15
F0.8993070125579834
sg23
g27
sg19
g20
sg14
I1
sg29
g30
sa(dp394
g28
g11
sg21
V2
sg22
Vr
sg15
F1.45100998878479
sg23
g27
sg19
g20
sg14
I1
sg29
g30
sa(dp395
g28
g11
sg21
V2
sg22
Vr
sg15
F7.0196089744567871
sg23
g27
sg19
g20
sg14
I0
sg29
g30
sa(dp396
g28
g11
sg21
V2
sg22
Vr
sg15
F4.8048079013824463
sg23
g27
sg19
g20
sg14
I0
sg29
g30
sa(dp397
g28
g11
sg21
V2
sg22
Vr
sg15
F18.959327220916748
sg23
g27
sg19
g20
sg14
I1
sg29
g30
sa(dp398
g28
g11
sg21
V2
sg22
Vr
sg15
F2.7174699306488037
sg23
g27
sg19
g20
sg14
I0
sg29
g30
sa(dp399
g28
g11
sg21
V2
sg22
Vr
sg15
F2.9692819118499756
sg23
g27
sg19
g20
sg14
I1
sg29
g30
sa(dp400
g28
g11
sg21
V2
sg22
Vr
sg15
F6.3931639194488525
sg23
g27
sg19
g20
sg14
I0
sg29
g30
sa(dp401
g28
g11
sg21
V2
sg22
Vr
sg15
F1.7670929431915283
sg23
g27
sg19
g20
sg14
I0
sg29
g30
sa(dp402
g28
g11
sg21
V2
sg22
Vr
sg15
F2.0728938579559326
sg23
g27
sg19
g20
sg14
I0
sg29
g30
sa(dp403
g28
g11
sg21
V2
sg22
Vr
sg15
F1.3491401672363281
sg23
g27
sg19
g20
sg14
I1
sg29
g30
sa(dp404
g28
g11
sg21
V2
sg22
Vr
sg15
F1.3501389026641846
sg23
g27
sg19
g20
sg14
I1
sg29
g30
sa(dp405
g28
g11
sg21
V2
sg22
Vr
sg15
F1.9885051250457764
sg23
g27
sg19
g20
sg14
I1
sg29
g30
sa(dp406
g28
g11
sg21
V2
sg22
Vr
sg15
F1.4235539436340332
sg23
g27
sg19
g20
sg14
I0
sg29
g30
sa(dp407
g28
g11
sg21
V2
sg22
Vr
sg15
F1.2537391185760498
sg23
g27
sg19
g20
sg14
I1
sg29
g30
sa(dp408
g28
g11
sg21
V2
sg22
Vr
sg15
F4.489253044128418
sg23
g27
sg19
g20
sg14
I1
sg29
g30
sa(dp409
g28
g11
sg21
V2
sg22
Vr
sg15
F1.4847562313079834
sg23
g27
sg19
g20
sg14
I1
sg29
g30
sa(dp410
g28
g11
sg21
V2
sg22
Vr
sg15
F1.313892126083374
sg23
g27
sg19
g20
sg14
I1
sg29
g30
sa(dp411
g28
g11
sg21
V2
sg22
Vr
sg15
F0.96258282661437988
sg23
g27
sg19
g20
sg14
I1
sg29
g30
sa(dp412
g28
g11
sg21
V2
sg22
Vr
sg15
F0.81919503211975098
sg23
g27
sg19
g20
sg14
I1
sg29
g30
sa(dp413
g28
g11
sg21
V2
sg22
Vr
sg15
F0.78087496757507324
sg23
g27
sg19
g20
sg14
I1
sg29
g30
sa(dp414
g28
g11
sg21
V2
sg22
Vr
sg15
F1.6179180145263672
sg23
g27
sg19
g20
sg14
I0
sg29
g30
sa(dp415
g28
g11
sg21
V2
sg22
Vr
sg15
F0.9983210563659668
sg23
g27
sg19
g20
sg14
I1
sg29
g30
sa(dp416
g28
g11
sg21
V2
sg22
Vr
sg15
F1.1320819854736328
sg23
g27
sg19
g20
sg14
I1
sg29
g30
sa(dp417
g28
g11
sg21
V2
sg22
Vr
sg15
F1.3947539329528809
sg23
g27
sg19
g20
sg14
I0
sg29
g30
sa(dp418
g28
g11
sg21
V2
sg22
Vr
sg15
F0.93024206161499023
sg23
g27
sg19
g20
sg14
I1
sg29
g30
sa(dp419
g28
g11
sg21
V2
sg22
Vr
sg15
F1.9366919994354248
sg23
g27
sg19
g20
sg14
I0
sg29
g30
sa(dp420
g28
g11
sg21
V2
sg22
Vr
sg15
F1.3666601181030273
sg23
g27
sg19
g20
sg14
I1
sg29
g30
sa(dp421
g28
g11
sg21
V2
sg22
Vr
sg15
F1.3992469310760498
sg23
g27
sg19
g20
sg14
I1
sg29
g30
sa(dp422
g28
g11
sg21
V2
sg22
Vr
sg15
F0.77898502349853516
sg23
g27
sg19
g20
sg14
I1
sg29
g30
sa(dp423
g28
g11
sg21
V2
sg22
Vr
sg15
F0.76318502426147461
sg23
g27
sg19
g20
sg14
I1
sg29
g30
sa(dp424
g28
g11
sg21
V2
sg22
Vr
sg15
F1.2552881240844727
sg23
g27
sg19
g20
sg14
I0
sg29
g30
sa(dp425
g28
g11
sg21
V2
sg22
Vr
sg15
F1.9038279056549072
sg23
g27
sg19
g20
sg14
I1
sg29
g30
sa(dp426
g28
g11
sg21
V2
sg22
Vr
sg15
F2.1505069732666016
sg23
g27
sg19
g20
sg14
I0
sg29
g30
sa(dp427
g28
g11
sg21
V2
sg22
Vr
sg15
F1.8325181007385254
sg23
g27
sg19
g20
sg14
I0
sg29
g30
sa(dp428
g28
g11
sg21
V2
sg22
Vr
sg15
F1.6147010326385498
sg23
g27
sg19
g20
sg14
I1
sg29
g30
sa(dp429
g28
g11
sg21
V2
sg22
Vr
sg15
F0.88019895553588867
sg23
g27
sg19
g20
sg14
I1
sg29
g30
sa(dp430
g28
g11
sg21
V2
sg22
Vr
sg15
F1.6233689785003662
sg23
g27
sg19
g20
sg14
I1
sg29
g30
sa(dp431
g28
g11
sg21
V2
sg22
Vr
sg15
F1.2399799823760986
sg23
g27
sg19
g20
sg14
I1
sg29
g30
sa(dp432
g28
g11
sg21
V2
sg22
Vr
sg15
F1.5989699363708496
sg23
g27
sg19
g20
sg14
I1
sg29
g30
sa(dp433
g28
g11
sg21
V2
sg22
Vr
sg15
F1.6003761291503906
sg23
g27
sg19
g20
sg14
I1
sg29
g30
sa(dp434
g28
g11
sg21
V2
sg22
Vr
sg15
F1.165539026260376
sg23
g27
sg19
g20
sg14
I1
sg29
g30
sa(dp435
g28
g11
sg21
V2
sg22
Vr
sg15
F1.0300920009613037
sg23
g27
sg19
g20
sg14
I0
sg29
g30
sa(dp436
g28
g11
sg21
V2
sg22
Vr
sg15
F0.94008207321166992
sg23
g27
sg19
g20
sg14
I1
sg29
g30
sa(dp437
g28
g11
sg21
V2
sg22
Vr
sg15
F0.41293191909790039
sg23
g27
sg19
g20
sg14
I1
sg29
g30
sa(dp438
g28
g11
sg21
V2
sg22
Vr
sg15
F1.538071870803833
sg23
g27
sg19
g20
sg14
I1
sg29
g30
sa(dp439
g28
g11
sg21
V2
sg22
Vr
sg15
F1.3986661434173584
sg23
g27
sg19
g20
sg14
I1
sg29
g30
sa(dp440
g28
g11
sg21
V2
sg22
Vr
sg15
F1.2155148983001709
sg23
g27
sg19
g20
sg14
I1
sg29
g30
sa(dp441
g28
g11
sg21
V2
sg22
Vr
sg15
F1.7012588977813721
sg23
g27
sg19
g20
sg14
I1
sg29
g30
sa(dp442
g28
g11
sg21
V2
sg22
Vr
sg15
F2.4329140186309814
sg23
g27
sg19
g20
sg14
I0
sg29
g30
sa(dp443
g28
g11
sg21
V2
sg22
Vr
sg15
F1.555433988571167
sg23
g27
sg19
g20
sg14
I1
sg29
g30
sa(dp444
g28
g11
sg21
V2
sg22
Vr
sg15
F1.6656899452209473
sg23
g27
sg19
g20
sg14
I1
sg29
g30
sa(dp445
g28
g11
sg21
V2
sg22
Vr
sg15
F1.0507311820983887
sg23
g27
sg19
g20
sg14
I1
sg29
g30
sa(dp446
g28
g11
sg21
V2
sg22
Vr
sg15
F2.0339610576629639
sg23
g27
sg19
g20
sg14
I1
sg29
g30
sa(dp447
g28
g11
sg21
V2
sg22
Vr
sg15
F2.1008000373840332
sg23
g27
sg19
g20
sg14
I0
sg29
g30
sa(dp448
g28
g11
sg21
V2
sg22
Vr
sg15
F2.1821451187133789
sg23
g27
sg19
g20
sg14
I0
sg29
g30
sa(dp449
g28
g11
sg21
V2
sg22
Vr
sg15
F2.156947135925293
sg23
g27
sg19
g20
sg14
I1
sg29
g30
sa(dp450
g28
g11
sg21
V2
sg22
Vr
sg15
F1.4824509620666504
sg23
g27
sg19
g20
sg14
I1
sg29
g30
sa(dp451
g28
g11
sg21
V2
sg22
Vr
sg15
F1.403458833694458
sg23
g27
sg19
g20
sg14
I1
sg29
g30
sa(dp452
g28
g11
sg21
V2
sg22
Vr
sg15
F1.216839075088501
sg23
g27
sg19
g20
sg14
I1
sg29
g30
sa(dp453
g28
g11
sg21
V2
sg22
Vr
sg15
F1.3645920753479004
sg23
g27
sg19
g20
sg14
I1
sg29
g30
sa(dp454
g28
g11
sg21
V2
sg22
Vr
sg15
F1.633195161819458
sg23
g27
sg19
g20
sg14
I1
sg29
g30
sa(dp455
g28
g11
sg21
V2
sg22
Vr
sg15
F2.9286751747131348
sg23
g27
sg19
g20
sg14
I1
sg29
g30
sa(dp456
g28
g11
sg21
V2
sg22
Vr
sg15
F1.8316950798034668
sg23
g27
sg19
g20
sg14
I1
sg29
g30
sa(dp457
g28
g11
sg21
V2
sg22
Vr
sg15
F2.222282886505127
sg23
g27
sg19
g20
sg14
I1
sg29
g30
sa(dp458
g28
g11
sg21
V2
sg22
Vr
sg15
F1.6841180324554443
sg23
g27
sg19
g20
sg14
I1
sg29
g30
sa(dp459
g28
g11
sg21
V2
sg22
Vr
sg15
F1.8489580154418945
sg23
g27
sg19
g20
sg14
I1
sg29
g30
sa(dp460
g28
g11
sg21
V2
sg22
Vr
sg15
F1.280879020690918
sg23
g27
sg19
g20
sg14
I0
sg29
g30
sa(dp461
g28
g11
sg21
V2
sg22
Vr
sg15
F1.4016399383544922
sg23
g27
sg19
g20
sg14
I1
sg29
g30
sa(dp462
g28
g11
sg21
V2
sg22
Vr
sg15
F1.3172800540924072
sg23
g27
sg19
g20
sg14
I0
sg29
g30
sa(dp463
g28
g11
sg21
V2
sg22
Vr
sg15
F1.1312558650970459
sg23
g27
sg19
g20
sg14
I1
sg29
g30
sa(dp464
g28
g11
sg21
V2
sg22
Vr
sg15
F1.1316699981689453
sg23
g27
sg19
g20
sg14
I1
sg29
g30
sa(dp465
g28
g11
sg21
V2
sg22
Vr
sg15
F1.0308201313018799
sg23
g27
sg19
g20
sg14
I1
sg29
g30
sa(dp466
g28
g11
sg21
V2
sg22
Vr
sg15
F1.2898788452148438
sg23
g27
sg19
g20
sg14
I0
sg29
g30
sa(dp467
g28
g11
sg21
V2
sg22
Vr
sg15
F2.2207331657409668
sg23
g27
sg19
g20
sg14
I1
sg29
g30
sa(dp468
g28
g11
sg21
V2
sg22
Vr
sg15
F1.4160819053649902
sg23
g27
sg19
g20
sg14
I1
sg29
g30
sa(dp469
g28
g11
sg21
V2
sg22
Vr
sg15
F1.5848929882049561
sg23
g27
sg19
g20
sg14
I1
sg29
g30
sa(dp470
g28
g11
sg21
V2
sg22
Vr
sg15
F1.3145120143890381
sg23
g27
sg19
g20
sg14
I1
sg29
g30
sa(dp471
g28
g11
sg21
V2
sg22
Vr
sg15
F1.1662099361419678
sg23
g27
sg19
g20
sg14
I0
sg29
g30
sa(dp472
g28
g11
sg21
V2
sg22
Vr
sg15
F1.559514045715332
sg23
g27
sg19
g20
sg14
I1
sg29
g30
sa(dp473
g28
g11
sg21
V2
sg22
Vr
sg15
F2.0670990943908691
sg23
g27
sg19
g20
sg14
I0
sg29
g30
sa(dp474
g28
g11
sg21
V2
sg22
Vr
sg15
F2.6520860195159912
sg23
g27
sg19
g20
sg14
I1
sg29
g30
sa(dp475
g28
g11
sg21
V2
sg22
Vr
sg15
F1.4981939792633057
sg23
g27
sg19
g20
sg14
I1
sg29
g30
sa(dp476
g28
g11
sg21
V2
sg22
Vr
sg15
F1.2297770977020264
sg23
g27
sg19
g20
sg14
I1
sg29
g30
sa(dp477
g28
g11
sg21
V2
sg22
Vr
sg15
F1.8432011604309082
sg23
g27
sg19
g20
sg14
I1
sg29
g30
sa(dp478
g28
g11
sg21
V2
sg22
Vr
sg15
F1.6039390563964844
sg23
g27
sg19
g20
sg14
I1
sg29
g30
sa(dp479
g28
g11
sg21
V2
sg22
Vr
sg15
F1.1817960739135742
sg23
g27
sg19
g20
sg14
I1
sg29
g30
sa(dp480
g28
g11
sg21
V2
sg22
Vr
sg15
F0.9691009521484375
sg23
g27
sg19
g20
sg14
I1
sg29
g30
sa(dp481
g28
g11
sg21
V2
sg22
Vr
sg15
F2.3347451686859131
sg23
g27
sg19
g20
sg14
I1
sg29
g30
sa(dp482
g28
g11
sg21
V2
sg22
Vr
sg15
F1.2645349502563477
sg23
g27
sg19
g20
sg14
I1
sg29
g30
sa(dp483
g28
g11
sg21
V2
sg22
Vr
sg15
F1.1810450553894043
sg23
g27
sg19
g20
sg14
I1
sg29
g30
sa(dp484
g28
g11
sg21
V2
sg22
Vr
sg15
F0.87902283668518066
sg23
g27
sg19
g20
sg14
I1
sg29
g30
sa(dp485
g28
g11
sg21
V2
sg22
Vr
sg15
F2.0162549018859863
sg23
g27
sg19
g20
sg14
I1
sg29
g30
sa(dp486
g28
g11
sg21
V2
sg22
Vr
sg15
F2.6528820991516113
sg23
g27
sg19
g20
sg14
I1
sg29
g30
sa(dp487
g28
g11
sg21
V2
sg22
Vr
sg15
F1.9347660541534424
sg23
g27
sg19
g20
sg14
I1
sg29
g30
sa(dp488
g28
g11
sg21
V2
sg22
Vr
sg15
F1.8494369983673096
sg23
g27
sg19
g20
sg14
I1
sg29
g30
sa(dp489
g28
g11
sg21
V2
sg22
Vr
sg15
F3.1527500152587891
sg23
g27
sg19
g20
sg14
I0
sg29
g30
sa(dp490
g28
g11
sg21
V2
sg22
Vr
sg15
F1.8724749088287354
sg23
g27
sg19
g20
sg14
I1
sg29
g30
sa(dp491
g28
g11
sg21
V2
sg22
Vr
sg15
F1.6666619777679443
sg23
g27
sg19
g20
sg14
I1
sg29
g30
sa(dp492
g28
g11
sg21
V2
sg22
Vr
sg15
F1.5042519569396973
sg23
g27
sg19
g20
sg14
I1
sg29
g30
sa(dp493
g28
g11
sg21
V2
sg22
Vr
sg15
F1.0986118316650391
sg23
g27
sg19
g20
sg14
I1
sg29
g30
sa(dp494
g28
g11
sg21
V2
sg22
Vr
sg15
F2.3185300827026367
sg23
g27
sg19
g20
sg14
I1
sg29
g30
sa(dp495
g28
g11
sg21
V2
sg22
Vr
sg15
F2.3180050849914551
sg23
g27
sg19
g20
sg14
I1
sg29
g30
sa(dp496
g28
g11
sg21
V2
sg22
Vr
sg15
F2.6669418811798096
sg23
g27
sg19
g20
sg14
I1
sg29
g30
sa(dp497
g28
g11
sg21
V2
sg22
Vr
sg15
F1.7495908737182617
sg23
g27
sg19
g20
sg14
I1
sg29
g30
sa(dp498
g28
g11
sg21
V2
sg22
Vr
sg15
F1.9015939235687256
sg23
g27
sg19
g20
sg14
I0
sg29
g30
sa(dp499
g28
g11
sg21
V2
sg22
Vr
sg15
F1.0817358493804932
sg23
g27
sg19
g20
sg14
I1
sg29
g30
sa(dp500
g28
g11
sg21
V2
sg22
Vr
sg15
F0.99901199340820312
sg23
g27
sg19
g20
sg14
I1
sg29
g30
sa(dp501
g28
g11
sg21
V2
sg22
Vr
sg15
F1.6468849182128906
sg23
g27
sg19
g20
sg14
I1
sg29
g30
sa(dp502
g28
g11
sg21
V2
sg22
Vr
sg15
F1.7170619964599609
sg23
g27
sg19
g20
sg14
I1
sg29
g30
sa(dp503
g28
g11
sg21
V2
sg22
Vr
sg15
F1.9407389163970947
sg23
g27
sg19
g20
sg14
I1
sg29
g30
sa(dp504
g28
g11
sg21
V2
sg22
Vr
sg15
F3.0085718631744385
sg23
g27
sg19
g20
sg14
I0
sg29
g30
sa(dp505
g28
g11
sg21
V2
sg22
Vr
sg15
F2.6016321182250977
sg23
g27
sg19
g20
sg14
I0
sg29
g30
sa(dp506
g28
g11
sg21
V2
sg22
Vr
sg15
F0.99982309341430664
sg23
g27
sg19
g20
sg14
I1
sg29
g30
sa(dp507
g28
g11
sg21
V2
sg22
Vr
sg15
F3.2736339569091797
sg23
g27
sg19
g20
sg14
I1
sg29
g30
sa(dp508
g28
g11
sg21
V2
sg22
Vr
sg15
F1.8532118797302246
sg23
g27
sg19
g20
sg14
I1
sg29
g30
sa(dp509
g28
g11
sg21
V2
sg22
Vr
sg15
F3.1038429737091064
sg23
g27
sg19
g20
sg14
I0
sg29
g30
sa(dp510
g28
g11
sg21
V2
sg22
Vr
sg15
F3.6019041538238525
sg23
g27
sg19
g20
sg14
I0
sg29
g30
sa(dp511
g28
g11
sg21
V2
sg22
Vr
sg15
F3.6378121376037598
sg23
g27
sg19
g20
sg14
I0
sg29
g30
sa(dp512
g28
g11
sg21
V2
sg22
Vr
sg15
F1.7317070960998535
sg23
g27
sg19
g20
sg14
I1
sg29
g30
sa(dp513
g28
g11
sg21
V2
sg22
Vr
sg15
F1.689068078994751
sg23
g27
sg19
g20
sg14
I1
sg29
g30
sa(dp514
g28
g11
sg21
V2
sg22
Vr
sg15
F2.455327033996582
sg23
g27
sg19
g20
sg14
I0
sg29
g30
sa(dp515
g28
g11
sg21
V2
sg22
Vr
sg15
F2.0038340091705322
sg23
g27
sg19
g20
sg14
I1
sg29
g30
sa(dp516
g28
g11
sg21
V2
sg22
Vr
sg15
F4.3213100433349609
sg23
g27
sg19
g20
sg14
I0
sg29
g30
sa(dp517
g28
g11
sg21
V2
sg22
Vr
sg15
F3.9184720516204834
sg23
g27
sg19
g20
sg14
I0
sg29
g30
sa(dp518
g28
g11
sg21
V2
sg22
Vr
sg15
F6.8933730125427246
sg23
g27
sg19
g20
sg14
I1
sg29
g30
sa(dp519
g28
g11
sg21
V2
sg22
Vr
sg15
F1.7642009258270264
sg23
g27
sg19
g20
sg14
I1
sg29
g30
sa(dp520
g28
g11
sg21
V2
sg22
Vr
sg15
F1.5151960849761963
sg23
g27
sg19
g20
sg14
I1
sg29
g30
sa(dp521
g28
g11
sg21
V2
sg22
Vr
sg15
F2.8706221580505371
sg23
g27
sg19
g20
sg14
I1
sg29
g30
sa(dp522
g28
g11
sg21
V2
sg22
Vr
sg15
F1.0828690528869629
sg23
g27
sg19
g20
sg14
I1
sg29
g30
sa(dp523
g28
g11
sg21
V2
sg22
Vr
sg15
F1.832042932510376
sg23
g27
sg19
g20
sg14
I0
sg29
g30
sa(dp524
g28
g11
sg21
V2
sg22
Vr
sg15
F1.2182130813598633
sg23
g27
sg19
g20
sg14
I1
sg29
g30
sa(dp525
g28
g11
sg21
V2
sg22
Vr
sg15
F1.3155989646911621
sg23
g27
sg19
g20
sg14
I1
sg29
g30
sa(dp526
g28
g11
sg21
V2
sg22
Vr
sg15
F1.5149209499359131
sg23
g27
sg19
g20
sg14
I1
sg29
g30
sa(dp527
g28
g11
sg21
V2
sg22
Vr
sg15
F2.1343128681182861
sg23
g27
sg19
g20
sg14
I1
sg29
g30
sa(dp528
g28
g11
sg21
V2
sg22
Vr
sg15
F4.5173320770263672
sg23
g27
sg19
g20
sg14
I1
sg29
g30
sa(dp529
g28
g11
sg21
V2
sg22
Vr
sg15
F2.533358097076416
sg23
g27
sg19
g20
sg14
I1
sg29
g30
sa(dp530
g28
g11
sg21
V2
sg22
Vr
sg15
F1.9145979881286621
sg23
g27
sg19
g20
sg14
I1
sg29
g30
sa(dp531
g28
g11
sg21
V2
sg22
Vr
sg15
F3.0847351551055908
sg23
g27
sg19
g20
sg14
I0
sg29
g30
sa(dp532
g28
g11
sg21
V2
sg22
Vr
sg15
F3.4962999820709229
sg23
g27
sg19
g20
sg14
I1
sg29
g30
sa(dp533
g28
g11
sg21
V2
sg22
Vr
sg15
F2.8336999416351318
sg23
g27
sg19
g20
sg14
I1
sg29
g30
sa(dp534
g28
g11
sg21
V2
sg22
Vr
sg15
F2.6389219760894775
sg23
g27
sg19
g20
sg14
I0
sg29
g30
sa(dp535
g28
g11
sg21
V2
sg22
Vr
sg15
F1.7804150581359863
sg23
g27
sg19
g20
sg14
I1
sg29
g30
sa(dp536
g28
g11
sg21
V2
sg22
Vr
sg15
F2.9515519142150879
sg23
g27
sg19
g20
sg14
I0
sg29
g30
sa(dp537
g28
g11
sg21
V2
sg22
Vr
sg15
F1.448822021484375
sg23
g27
sg19
g20
sg14
I1
sg29
g30
sa(dp538
g28
g11
sg21
V2
sg22
Vr
sg15
F1.9332168102264404
sg23
g27
sg19
g20
sg14
I1
sg29
g30
sa(dp539
g28
g11
sg21
V2
sg22
Vr
sg15
F1.8141930103302002
sg23
g27
sg19
g20
sg14
I1
sg29
g30
sa(dp540
g28
g11
sg21
V2
sg22
Vr
sg15
F2.4233660697937012
sg23
g27
sg19
g20
sg14
I1
sg29
g30
sa(dp541
g28
g11
sg21
V2
sg22
Vr
sg15
F1.9323031902313232
sg23
g27
sg19
g20
sg14
I1
sg29
g30
sa(dp542
g28
g11
sg21
V2
sg22
Vr
sg15
F1.2844750881195068
sg23
g27
sg19
g20
sg14
I1
sg29
g30
sa(dp543
g28
g11
sg21
V2
sg22
Vr
sg15
F2.3851840496063232
sg23
g27
sg19
g20
sg14
I1
sg29
g30
sa(dp544
g28
g11
sg21
V2
sg22
Vr
sg15
F1.7842159271240234
sg23
g27
sg19
g20
sg14
I1
sg29
g30
sa(dp545
g28
g11
sg21
V2
sg22
Vr
sg15
F1.3148767948150635
sg23
g27
sg19
g20
sg14
I1
sg29
g30
sa(dp546
g28
g11
sg21
V2
sg22
Vr
sg15
F1.9532630443572998
sg23
g27
sg19
g20
sg14
I0
sg29
g30
sa(dp547
g28
g11
sg21
V2
sg22
Vr
sg15
F2.0499880313873291
sg23
g27
sg19
g20
sg14
I1
sg29
g30
sa(dp548
g28
g11
sg21
V2
sg22
Vr
sg15
F5.0070590972900391
sg23
g27
sg19
g20
sg14
I0
sg29
g30
sa(dp549
g28
g11
sg21
V2
sg22
Vr
sg15
F2.3495159149169922
sg23
g27
sg19
g20
sg14
I1
sg29
g30
sa(dp550
g28
g11
sg21
V2
sg22
Vr
sg15
F2.7667360305786133
sg23
g27
sg19
g20
sg14
I0
sg29
g30
sa(dp551
g28
g11
sg21
V2
sg22
Vr
sg15
F2.2186110019683838
sg23
g27
sg19
g20
sg14
I1
sg29
g30
sa(dp552
g28
g11
sg21
V2
sg22
Vr
sg15
F1.7705659866333008
sg23
g27
sg19
g20
sg14
I0
sg29
g30
sa(dp553
g28
g11
sg21
V2
sg22
Vr
sg15
F1.7329409122467041
sg23
g27
sg19
g20
sg14
I1
sg29
g30
sa(dp554
g28
g11
sg21
V2
sg22
Vr
sg15
F1.3000259399414062
sg23
g27
sg19
g20
sg14
I1
sg29
g30
sa(dp555
g28
g11
sg21
V2
sg22
Vr
sg15
F2.6015028953552246
sg23
g27
sg19
g20
sg14
I1
sg29
g30
sa(dp556
g28
g11
sg21
V2
sg22
Vr
sg15
F1.6650149822235107
sg23
g27
sg19
g20
sg14
I1
sg29
g30
sa(dp557
g28
g11
sg21
V2
sg22
Vr
sg15
F1.8551530838012695
sg23
g27
sg19
g20
sg14
I1
sg29
g30
sa(dp558
g28
g11
sg21
V2
sg22
Vr
sg15
F2.823512077331543
sg23
g27
sg19
g20
sg14
I0
sg29
g30
sa(dp559
g28
g11
sg21
V2
sg22
Vr
sg15
F2.4014530181884766
sg23
g27
sg19
g20
sg14
I0
sg29
g30
sa(dp560
g28
g11
sg21
V2
sg22
Vr
sg15
F2.3163189888000488
sg23
g27
sg19
g20
sg14
I0
sg29
g30
sa(dp561
g28
g11
sg21
V2
sg22
Vr
sg15
F3.535520076751709
sg23
g27
sg19
g20
sg14
I1
sg29
g30
sa(dp562
g28
g11
sg21
V2
sg22
Vr
sg15
F1.5507371425628662
sg23
g27
sg19
g20
sg14
I1
sg29
g30
sa(dp563
g28
g11
sg21
V2
sg22
Vr
sg15
F2.5516839027404785
sg23
g27
sg19
g20
sg14
I0
sg29
g30
sa(dp564
g28
g11
sg21
V2
sg22
Vr
sg15
F1.94940185546875
sg23
g27
sg19
g20
sg14
I0
sg29
g30
sa(dp565
g28
g11
sg21
V2
sg22
Vr
sg15
F1.8317329883575439
sg23
g27
sg19
g20
sg14
I1
sg29
g30
sa(dp566
g28
g11
sg21
V2
sg22
Vr
sg15
F1.5652270317077637
sg23
g27
sg19
g20
sg14
I1
sg29
g30
sa(dp567
g28
g11
sg21
V2
sg22
Vr
sg15
F1.7341399192810059
sg23
g27
sg19
g20
sg14
I1
sg29
g30
sa(dp568
g28
g11
sg21
V2
sg22
Vr
sg15
F1.6053340435028076
sg23
g27
sg19
g20
sg14
I1
sg29
g30
sa(dp569
g28
g11
sg21
V2
sg22
Vr
sg15
F1.3652710914611816
sg23
g27
sg19
g20
sg14
I1
sg29
g30
sa(dp570
g28
g11
sg21
V2
sg22
Vr
sg15
F1.8008038997650146
sg23
g27
sg19
g20
sg14
I1
sg29
g30
sa(dp571
g28
g11
sg21
V2
sg22
Vr
sg15
F1.5152928829193115
sg23
g27
sg19
g20
sg14
I1
sg29
g30
sa(dp572
g28
g11
sg21
V2
sg22
Vr
sg15
F2.1157450675964355
sg23
g27
sg19
g20
sg14
I1
sg29
g30
sa(dp573
g28
g11
sg21
V2
sg22
Vr
sg15
F2.7845799922943115
sg23
g27
sg19
g20
sg14
I0
sg29
g30
sa(dp574
g28
g11
sg21
V2
sg22
Vr
sg15
F1.7544050216674805
sg23
g27
sg19
g20
sg14
I1
sg29
g30
sa(dp575
g28
g11
sg21
V2
sg22
Vr
sg15
F1.2655191421508789
sg23
g27
sg19
g20
sg14
I1
sg29
g30
sa(dp576
g28
g11
sg21
V2
sg22
Vr
sg15
F1.4337618350982666
sg23
g27
sg19
g20
sg14
I1
sg29
g30
sa(dp577
g28
g11
sg21
V2
sg22
Vr
sg15
F1.3146300315856934
sg23
g27
sg19
g20
sg14
I1
sg29
g30
sa(dp578
g28
g11
sg21
V2
sg22
Vr
sg15
F1.2586350440979004
sg23
g27
sg19
g20
sg14
I1
sg29
g30
sa(dp579
g28
g11
sg21
V2
sg22
Vr
sg15
F4.4787631034851074
sg23
g27
sg19
g20
sg14
I1
sg29
g30
sa(dp580
g28
g11
sg21
V2
sg22
Vr
sg15
F2.5349957942962646
sg23
g27
sg19
g20
sg14
I1
sg29
g30
sa(dp581
g28
g11
sg21
V2
sg22
Vr
sg15
F1.2140960693359375
sg23
g27
sg19
g20
sg14
I1
sg29
g30
sa(dp582
g28
g11
sg21
V2
sg22
Vr
sg15
F2.4173998832702637
sg23
g27
sg19
g20
sg14
I0
sg29
g30
sa(dp583
g28
g11
sg21
V2
sg22
Vr
sg15
F1.8812971115112305
sg23
g27
sg19
g20
sg14
I1
sg29
g30
sa(dp584
g28
g11
sg21
V2
sg22
Vr
sg15
F1.8392138481140137
sg23
g27
sg19
g20
sg14
I1
sg29
g30
sa(dp585
g28
g11
sg21
V2
sg22
Vr
sg15
F1.7484679222106934
sg23
g27
sg19
g20
sg14
I1
sg29
g30
sa(dp586
g28
g11
sg21
V2
sg22
Vr
sg15
F1.5355739593505859
sg23
g27
sg19
g20
sg14
I1
sg29
g30
sa(dp587
g28
g11
sg21
V2
sg22
Vr
sg15
F1.9186232089996338
sg23
g27
sg19
g20
sg14
I1
sg29
g30
sa(dp588
g28
g11
sg21
V2
sg22
Vr
sg15
F2.0829629898071289
sg23
g27
sg19
g20
sg14
I1
sg29
g30
sa(dp589
g28
g11
sg21
V2
sg22
Vr
sg15
F2.5327479839324951
sg23
g27
sg19
g20
sg14
I0
sg29
g30
sa(dp590
g28
g11
sg21
V2
sg22
Vr
sg15
F2.2753210067749023
sg23
g27
sg19
g20
sg14
I0
sg29
g30
sa(dp591
g28
g11
sg21
V2
sg22
Vr
sg15
F1.9485840797424316
sg23
g27
sg19
g20
sg14
I1
sg29
g30
sa(dp592
g28
g11
sg21
V2
sg22
Vr
sg15
F1.5704901218414307
sg23
g27
sg19
g20
sg14
I0
sg29
g30
sa(dp593
g28
g11
sg21
V2
sg22
Vr
sg15
F3.2674629688262939
sg23
g27
sg19
g20
sg14
I0
sg29
g30
sa(dp594
g28
g11
sg21
V2
sg22
Vr
sg15
F2.2006871700286865
sg23
g27
sg19
g20
sg14
I1
sg29
g30
sa(dp595
g28
g11
sg21
V2
sg22
Vr
sg15
F1.5325839519500732
sg23
g27
sg19
g20
sg14
I1
sg29
g30
sa(dp596
g28
g11
sg21
V2
sg22
Vr
sg15
F3.4685530662536621
sg23
g27
sg19
g20
sg14
I0
sg29
g30
sa(dp597
g28
g11
sg21
V2
sg22
Vr
sg15
F2.4866251945495605
sg23
g27
sg19
g20
sg14
I1
sg29
g30
sa(dp598
g28
g11
sg21
V2
sg22
Vr
sg15
F2.1500370502471924
sg23
g27
sg19
g20
sg14
I1
sg29
g30
sa(dp599
g28
g11
sg21
V2
sg22
Vr
sg15
F4.9380099773406982
sg23
g27
sg19
g20
sg14
I0
sg29
g30
sa(dp600
g28
g11
sg21
V2
sg22
Vr
sg15
F2.5080280303955078
sg23
g27
sg19
g20
sg14
I0
sg29
g30
sa(dp601
g28
g11
sg21
V2
sg22
Vr
sg15
F2.168860912322998
sg23
g27
sg19
g20
sg14
I1
sg29
g30
sa(dp602
g28
g11
sg21
V2
sg22
Vr
sg15
F1.9324378967285156
sg23
g27
sg19
g20
sg14
I1
sg29
g30
sa(dp603
g28
g11
sg21
V2
sg22
Vr
sg15
F2.1027860641479492
sg23
g27
sg19
g20
sg14
I1
sg29
g30
sa(dp604
g28
g11
sg21
V2
sg22
Vr
sg15
F1.6687240600585938
sg23
g27
sg19
g20
sg14
I1
sg29
g30
sa(dp605
g28
g11
sg21
V2
sg22
Vr
sg15
F3.3352310657501221
sg23
g27
sg19
g20
sg14
I0
sg29
g30
sa(dp606
g28
g11
sg21
V2
sg22
Vr
sg15
F1.8993179798126221
sg23
g27
sg19
g20
sg14
I1
sg29
g30
sa(dp607
g28
g11
sg21
V2
sg22
Vr
sg15
F1.3873729705810547
sg23
g27
sg19
g20
sg14
I1
sg29
g30
sa(dp608
g28
g11
sg21
V2
sg22
Vr
sg15
F1.5489840507507324
sg23
g27
sg19
g20
sg14
I1
sg29
g30
sa(dp609
g28
g11
sg21
V2
sg22
Vr
sg15
F3.7373960018157959
sg23
g27
sg19
g20
sg14
I0
sg29
g30
sa(dp610
g28
g11
sg21
V2
sg22
Vr
sg15
F2.6854150295257568
sg23
g27
sg19
g20
sg14
I0
sg29
g30
sa(dp611
g28
g11
sg21
V2
sg22
Vr
sg15
F2.9330949783325195
sg23
g27
sg19
g20
sg14
I0
sg29
g30
sa(dp612
g28
g11
sg21
V2
sg22
Vr
sg15
F2.1560108661651611
sg23
g27
sg19
g20
sg14
I1
sg29
g30
sa(dp613
g28
g11
sg21
V2
sg22
Vr
sg15
F2.9691841602325439
sg23
g27
sg19
g20
sg14
I1
sg29
g30
sa(dp614
g28
g11
sg21
V2
sg22
Vr
sg15
F1.4004321098327637
sg23
g27
sg19
g20
sg14
I1
sg29
g30
sa(dp615
g28
g11
sg21
V2
sg22
Vr
sg15
F1.785106897354126
sg23
g27
sg19
g20
sg14
I1
sg29
g30
sa(dp616
g28
g11
sg21
V2
sg22
Vr
sg15
F3.2004058361053467
sg23
g27
sg19
g20
sg14
I0
sg29
g30
sa(dp617
g28
g11
sg21
V2
sg22
Vr
sg15
F2.479407787322998
sg23
g27
sg19
g20
sg14
I1
sg29
g30
sa(dp618
g28
g11
sg21
V2
sg22
Vr
sg15
F1.9148290157318115
sg23
g27
sg19
g20
sg14
I1
sg29
g30
sa(dp619
g28
g11
sg21
V2
sg22
Vr
sg15
F2.4035580158233643
sg23
g27
sg19
g20
sg14
I1
sg29
g30
sa(dp620
g28
g11
sg21
V2
sg22
Vr
sg15
F2.2507309913635254
sg23
g27
sg19
g20
sg14
I1
sg29
g30
sa(dp621
g28
g11
sg21
V2
sg22
Vr
sg15
F1.9489870071411133
sg23
g27
sg19
g20
sg14
I1
sg29
g30
sa(dp622
g28
g11
sg21
V2
sg22
Vr
sg15
F1.977341890335083
sg23
g27
sg19
g20
sg14
I1
sg29
g30
sa(dp623
g28
g11
sg21
V2
sg22
Vr
sg15
F2.7343800067901611
sg23
g27
sg19
g20
sg14
I0
sg29
g30
sa(dp624
g28
g11
sg21
V2
sg22
Vr
sg15
F2.8907809257507324
sg23
g27
sg19
g20
sg14
I0
sg29
g30
sa(dp625
g28
g11
sg21
V2
sg22
Vr
sg15
F1.8200240135192871
sg23
g27
sg19
g20
sg14
I1
sg29
g30
sa(dp626
g28
g11
sg21
V2
sg22
Vr
sg15
F2.2168128490447998
sg23
g27
sg19
g20
sg14
I1
sg29
g30
sa(dp627
g28
g11
sg21
V2
sg22
Vr
sg15
F1.8514020442962646
sg23
g27
sg19
g20
sg14
I1
sg29
g30
sa(dp628
g28
g11
sg21
V2
sg22
Vr
sg15
F1.8822600841522217
sg23
g27
sg19
g20
sg14
I0
sg29
g30
sa(dp629
g28
g11
sg21
V2
sg22
Vr
sg15
F1.7309198379516602
sg23
g27
sg19
g20
sg14
I1
sg29
g30
sa(dp630
g28
g11
sg21
V2
sg22
Vr
sg15
F1.4906589984893799
sg23
g27
sg19
g20
sg14
I1
sg29
g30
sa(dp631
g28
g11
sg21
V2
sg22
Vr
sg15
F1.3359291553497314
sg23
g27
sg19
g20
sg14
I1
sg29
g30
sa(dp632
g28
g11
sg21
V2
sg22
Vr
sg15
F1.332366943359375
sg23
g27
sg19
g20
sg14
I1
sg29
g30
sa(dp633
g28
g11
sg21
V2
sg22
Vr
sg15
F1.6170780658721924
sg23
g27
sg19
g20
sg14
I1
sg29
g30
sa(dp634
g28
g11
sg21
V2
sg22
Vr
sg15
F1.5318708419799805
sg23
g27
sg19
g20
sg14
I1
sg29
g30
sa(dp635
g28
g11
sg21
V2
sg22
Vr
sg15
F1.2603850364685059
sg23
g27
sg19
g20
sg14
I1
sg29
g30
sa(dp636
g28
g11
sg21
V2
sg22
Vr
sg15
F1.2055141925811768
sg23
g27
sg19
g20
sg14
I1
sg29
g30
sa(dp637
g28
g11
sg21
V2
sg22
Vr
sg15
F1.8156580924987793
sg23
g27
sg19
g20
sg14
I1
sg29
g30
sa(dp638
g28
g11
sg21
V2
sg22
Vr
sg15
F1.2838020324707031
sg23
g27
sg19
g20
sg14
I1
sg29
g30
sa(dp639
g28
g11
sg21
V2
sg22
Vr
sg15
F2.3676450252532959
sg23
g27
sg19
g20
sg14
I1
sg29
g30
sa(dp640
g28
g11
sg21
V2
sg22
Vr
sg15
F0.99732804298400879
sg23
g27
sg19
g20
sg14
I1
sg29
g30
sasS'loops'
p641
(lp642
sS'savePickle'
p643
I00
sb.