ccopy_reg
_reconstructor
p1
(cpsychopy.data
ExperimentHandler
p2
c__builtin__
object
p3
NtRp4
(dp5
S'originPath'
p6
NsS'dataFileName'
p7
V/Users/egor/Dropbox/projects/supr-eff/supreff/data/supreff_1_r_01_2015_Apr_06_1853
p8
sS'runtimeInfo'
p9
NsS'name'
p10
S'supreff'
p11
sS'dataNames'
p12
(lp13
S'.response'
p14
aS'key_upDown.rt'
p15
asS'autoLog'
p16
I01
sS'extraInfo'
p17
(dp18
Vsession
p19
V01
p20
sVparticipant
p21
V1
sVdomEye
p22
Vr
sS'frameRate'
p23
cnumpy.core.multiarray
scalar
p24
(cnumpy
dtype
p25
(S'f8'
I0
I1
tRp26
(I3
S'<'
NNNI-1
I-1
I0
tbS'xb\xeb\xbe\xc0&N@'
tRp27
sS'expName'
p28
g11
sS'date'
p29
V2015_Apr_06_1853
p30
ssS'loopsUnfinished'
p31
(lp32
sS'saveWideText'
p33
I01
sS'thisEntry'
p34
(dp35
sS'version'
p36
S''
sS'_paramNamesSoFar'
p37
(lp38
sS'entries'
p39
(lp40
(dp41
g28
g11
sg21
V1
sg22
Vr
sg15
F0.88555622100830078
sg23
g27
sg19
g20
sg14
I1
sg29
g30
sa(dp42
g28
g11
sg21
V1
sg22
Vr
sg15
F1.1485509872436523
sg23
g27
sg19
g20
sg14
I1
sg29
g30
sa(dp43
g28
g11
sg21
V1
sg22
Vr
sg15
F0.66347408294677734
sg23
g27
sg19
g20
sg14
I1
sg29
g30
sa(dp44
g28
g11
sg21
V1
sg22
Vr
sg15
F0.59733891487121582
sg23
g27
sg19
g20
sg14
I1
sg29
g30
sa(dp45
g28
g11
sg21
V1
sg22
Vr
sg15
F0.5864717960357666
sg23
g27
sg19
g20
sg14
I1
sg29
g30
sa(dp46
g28
g11
sg21
V1
sg22
Vr
sg15
F6.3382129669189453
sg23
g27
sg19
g20
sg14
I0
sg29
g30
sa(dp47
g28
g11
sg21
V1
sg22
Vr
sg15
F0.90032792091369629
sg23
g27
sg19
g20
sg14
I1
sg29
g30
sa(dp48
g28
g11
sg21
V1
sg22
Vr
sg15
F0.7796781063079834
sg23
g27
sg19
g20
sg14
I1
sg29
g30
sa(dp49
g28
g11
sg21
V1
sg22
Vr
sg15
F0.96134114265441895
sg23
g27
sg19
g20
sg14
I1
sg29
g30
sa(dp50
g28
g11
sg21
V1
sg22
Vr
sg15
F0.73834800720214844
sg23
g27
sg19
g20
sg14
I1
sg29
g30
sa(dp51
g28
g11
sg21
V1
sg22
Vr
sg15
F0.63031196594238281
sg23
g27
sg19
g20
sg14
I1
sg29
g30
sa(dp52
g28
g11
sg21
V1
sg22
Vr
sg15
F0.9024507999420166
sg23
g27
sg19
g20
sg14
I1
sg29
g30
sa(dp53
g28
g11
sg21
V1
sg22
Vr
sg15
F0.88005495071411133
sg23
g27
sg19
g20
sg14
I1
sg29
g30
sa(dp54
g28
g11
sg21
V1
sg22
Vr
sg15
F0.79794597625732422
sg23
g27
sg19
g20
sg14
I1
sg29
g30
sa(dp55
g28
g11
sg21
V1
sg22
Vr
sg15
F0.78188395500183105
sg23
g27
sg19
g20
sg14
I1
sg29
g30
sa(dp56
g28
g11
sg21
V1
sg22
Vr
sg15
F0.59716486930847168
sg23
g27
sg19
g20
sg14
I1
sg29
g30
sa(dp57
g28
g11
sg21
V1
sg22
Vr
sg15
F0.53090596199035645
sg23
g27
sg19
g20
sg14
I1
sg29
g30
sa(dp58
g28
g11
sg21
V1
sg22
Vr
sg15
F0.6855769157409668
sg23
g27
sg19
g20
sg14
I1
sg29
g30
sa(dp59
g28
g11
sg21
V1
sg22
Vr
sg15
F0.58230805397033691
sg23
g27
sg19
g20
sg14
I1
sg29
g30
sa(dp60
g28
g11
sg21
V1
sg22
Vr
sg15
F0.77811002731323242
sg23
g27
sg19
g20
sg14
I1
sg29
g30
sa(dp61
g28
g11
sg21
V1
sg22
Vr
sg15
F3.2514510154724121
sg23
g27
sg19
g20
sg14
I1
sg29
g30
sa(dp62
g28
g11
sg21
V1
sg22
Vr
sg15
F0.85309195518493652
sg23
g27
sg19
g20
sg14
I1
sg29
g30
sa(dp63
g28
g11
sg21
V1
sg22
Vr
sg15
F0.59692502021789551
sg23
g27
sg19
g20
sg14
I1
sg29
g30
sa(dp64
g28
g11
sg21
V1
sg22
Vr
sg15
F3.0882589817047119
sg23
g27
sg19
g20
sg14
I1
sg29
g30
sa(dp65
g28
g11
sg21
V1
sg22
Vr
sg15
F3.0187969207763672
sg23
g27
sg19
g20
sg14
I1
sg29
g30
sa(dp66
g28
g11
sg21
V1
sg22
Vr
sg15
F0.76331615447998047
sg23
g27
sg19
g20
sg14
I1
sg29
g30
sa(dp67
g28
g11
sg21
V1
sg22
Vr
sg15
F0.6364898681640625
sg23
g27
sg19
g20
sg14
I1
sg29
g30
sa(dp68
g28
g11
sg21
V1
sg22
Vr
sg15
F2.31797194480896
sg23
g27
sg19
g20
sg14
I0
sg29
g30
sa(dp69
g28
g11
sg21
V1
sg22
Vr
sg15
F0.66686701774597168
sg23
g27
sg19
g20
sg14
I1
sg29
g30
sa(dp70
g28
g11
sg21
V1
sg22
Vr
sg15
F0.7650749683380127
sg23
g27
sg19
g20
sg14
I1
sg29
g30
sa(dp71
g28
g11
sg21
V1
sg22
Vr
sg15
F0.59561800956726074
sg23
g27
sg19
g20
sg14
I1
sg29
g30
sa(dp72
g28
g11
sg21
V1
sg22
Vr
sg15
F0.5961909294128418
sg23
g27
sg19
g20
sg14
I1
sg29
g30
sa(dp73
g28
g11
sg21
V1
sg22
Vr
sg15
F0.51971697807312012
sg23
g27
sg19
g20
sg14
I1
sg29
g30
sa(dp74
g28
g11
sg21
V1
sg22
Vr
sg15
F2.23826003074646
sg23
g27
sg19
g20
sg14
I0
sg29
g30
sa(dp75
g28
g11
sg21
V1
sg22
Vr
sg15
F2.4853780269622803
sg23
g27
sg19
g20
sg14
I0
sg29
g30
sa(dp76
g28
g11
sg21
V1
sg22
Vr
sg15
F0.68071794509887695
sg23
g27
sg19
g20
sg14
I1
sg29
g30
sa(dp77
g28
g11
sg21
V1
sg22
Vr
sg15
F3.3016910552978516
sg23
g27
sg19
g20
sg14
I1
sg29
g30
sa(dp78
g28
g11
sg21
V1
sg22
Vr
sg15
F2.4405949115753174
sg23
g27
sg19
g20
sg14
I1
sg29
g30
sa(dp79
g28
g11
sg21
V1
sg22
Vr
sg15
F0.65154004096984863
sg23
g27
sg19
g20
sg14
I1
sg29
g30
sa(dp80
g28
g11
sg21
V1
sg22
Vr
sg15
F1.9168779850006104
sg23
g27
sg19
g20
sg14
I0
sg29
g30
sa(dp81
g28
g11
sg21
V1
sg22
Vr
sg15
F0.68092799186706543
sg23
g27
sg19
g20
sg14
I1
sg29
g30
sa(dp82
g28
g11
sg21
V1
sg22
Vr
sg15
F0.72576713562011719
sg23
g27
sg19
g20
sg14
I1
sg29
g30
sa(dp83
g28
g11
sg21
V1
sg22
Vr
sg15
F0.667388916015625
sg23
g27
sg19
g20
sg14
I1
sg29
g30
sa(dp84
g28
g11
sg21
V1
sg22
Vr
sg15
F0.64726519584655762
sg23
g27
sg19
g20
sg14
I1
sg29
g30
sa(dp85
g28
g11
sg21
V1
sg22
Vr
sg15
F0.66736984252929688
sg23
g27
sg19
g20
sg14
I1
sg29
g30
sa(dp86
g28
g11
sg21
V1
sg22
Vr
sg15
F0.69740796089172363
sg23
g27
sg19
g20
sg14
I1
sg29
g30
sa(dp87
g28
g11
sg21
V1
sg22
Vr
sg15
F0.66398000717163086
sg23
g27
sg19
g20
sg14
I1
sg29
g30
sa(dp88
g28
g11
sg21
V1
sg22
Vr
sg15
F0.81326699256896973
sg23
g27
sg19
g20
sg14
I1
sg29
g30
sa(dp89
g28
g11
sg21
V1
sg22
Vr
sg15
F0.64539003372192383
sg23
g27
sg19
g20
sg14
I1
sg29
g30
sa(dp90
g28
g11
sg21
V1
sg22
Vr
sg15
F2.3514010906219482
sg23
g27
sg19
g20
sg14
I0
sg29
g30
sa(dp91
g28
g11
sg21
V1
sg22
Vr
sg15
F0.7019050121307373
sg23
g27
sg19
g20
sg14
I1
sg29
g30
sa(dp92
g28
g11
sg21
V1
sg22
Vr
sg15
F2.5657851696014404
sg23
g27
sg19
g20
sg14
I1
sg29
g30
sa(dp93
g28
g11
sg21
V1
sg22
Vr
sg15
F0.76326489448547363
sg23
g27
sg19
g20
sg14
I1
sg29
g30
sa(dp94
g28
g11
sg21
V1
sg22
Vr
sg15
F0.64656305313110352
sg23
g27
sg19
g20
sg14
I1
sg29
g30
sa(dp95
g28
g11
sg21
V1
sg22
Vr
sg15
F0.74828815460205078
sg23
g27
sg19
g20
sg14
I1
sg29
g30
sa(dp96
g28
g11
sg21
V1
sg22
Vr
sg15
F2.3332788944244385
sg23
g27
sg19
g20
sg14
I0
sg29
g30
sa(dp97
g28
g11
sg21
V1
sg22
Vr
sg15
F0.99872994422912598
sg23
g27
sg19
g20
sg14
I1
sg29
g30
sa(dp98
g28
g11
sg21
V1
sg22
Vr
sg15
F0.76523184776306152
sg23
g27
sg19
g20
sg14
I1
sg29
g30
sa(dp99
g28
g11
sg21
V1
sg22
Vr
sg15
F2.9346518516540527
sg23
g27
sg19
g20
sg14
I0
sg29
g30
sa(dp100
g28
g11
sg21
V1
sg22
Vr
sg15
F2.667072057723999
sg23
g27
sg19
g20
sg14
I0
sg29
g30
sa(dp101
g28
g11
sg21
V1
sg22
Vr
sg15
F2.37127685546875
sg23
g27
sg19
g20
sg14
I0
sg29
g30
sa(dp102
g28
g11
sg21
V1
sg22
Vr
sg15
F0.78195381164550781
sg23
g27
sg19
g20
sg14
I1
sg29
g30
sa(dp103
g28
g11
sg21
V1
sg22
Vr
sg15
F0.61828517913818359
sg23
g27
sg19
g20
sg14
I1
sg29
g30
sa(dp104
g28
g11
sg21
V1
sg22
Vr
sg15
F2.3681640625
sg23
g27
sg19
g20
sg14
I1
sg29
g30
sa(dp105
g28
g11
sg21
V1
sg22
Vr
sg15
F2.5673129558563232
sg23
g27
sg19
g20
sg14
I1
sg29
g30
sa(dp106
g28
g11
sg21
V1
sg22
Vr
sg15
F2.3493399620056152
sg23
g27
sg19
g20
sg14
I1
sg29
g30
sa(dp107
g28
g11
sg21
V1
sg22
Vr
sg15
F2.7363619804382324
sg23
g27
sg19
g20
sg14
I1
sg29
g30
sa(dp108
g28
g11
sg21
V1
sg22
Vr
sg15
F2.5052270889282227
sg23
g27
sg19
g20
sg14
I1
sg29
g30
sa(dp109
g28
g11
sg21
V1
sg22
Vr
sg15
F2.5832350254058838
sg23
g27
sg19
g20
sg14
I0
sg29
g30
sa(dp110
g28
g11
sg21
V1
sg22
Vr
sg15
F0.72984504699707031
sg23
g27
sg19
g20
sg14
I1
sg29
g30
sa(dp111
g28
g11
sg21
V1
sg22
Vr
sg15
F2.5001101493835449
sg23
g27
sg19
g20
sg14
I0
sg29
g30
sa(dp112
g28
g11
sg21
V1
sg22
Vr
sg15
F0.7363889217376709
sg23
g27
sg19
g20
sg14
I1
sg29
g30
sa(dp113
g28
g11
sg21
V1
sg22
Vr
sg15
F0.6638789176940918
sg23
g27
sg19
g20
sg14
I1
sg29
g30
sa(dp114
g28
g11
sg21
V1
sg22
Vr
sg15
F0.62918400764465332
sg23
g27
sg19
g20
sg14
I1
sg29
g30
sa(dp115
g28
g11
sg21
V1
sg22
Vr
sg15
F1.1160731315612793
sg23
g27
sg19
g20
sg14
I1
sg29
g30
sa(dp116
g28
g11
sg21
V1
sg22
Vr
sg15
F2.5339531898498535
sg23
g27
sg19
g20
sg14
I0
sg29
g30
sa(dp117
g28
g11
sg21
V1
sg22
Vr
sg15
F0.59939908981323242
sg23
g27
sg19
g20
sg14
I1
sg29
g30
sa(dp118
g28
g11
sg21
V1
sg22
Vr
sg15
F2.7732958793640137
sg23
g27
sg19
g20
sg14
I1
sg29
g30
sa(dp119
g28
g11
sg21
V1
sg22
Vr
sg15
F2.1348390579223633
sg23
g27
sg19
g20
sg14
I0
sg29
g30
sa(dp120
g28
g11
sg21
V1
sg22
Vr
sg15
F0.90204095840454102
sg23
g27
sg19
g20
sg14
I1
sg29
g30
sa(dp121
g28
g11
sg21
V1
sg22
Vr
sg15
F0.61597704887390137
sg23
g27
sg19
g20
sg14
I1
sg29
g30
sa(dp122
g28
g11
sg21
V1
sg22
Vr
sg15
F1.0809879302978516
sg23
g27
sg19
g20
sg14
I1
sg29
g30
sa(dp123
g28
g11
sg21
V1
sg22
Vr
sg15
F0.61080789566040039
sg23
g27
sg19
g20
sg14
I1
sg29
g30
sa(dp124
g28
g11
sg21
V1
sg22
Vr
sg15
F0.58045291900634766
sg23
g27
sg19
g20
sg14
I1
sg29
g30
sa(dp125
g28
g11
sg21
V1
sg22
Vr
sg15
F3.0515408515930176
sg23
g27
sg19
g20
sg14
I0
sg29
g30
sa(dp126
g28
g11
sg21
V1
sg22
Vr
sg15
F0.75146007537841797
sg23
g27
sg19
g20
sg14
I1
sg29
g30
sa(dp127
g28
g11
sg21
V1
sg22
Vr
sg15
F0.76403403282165527
sg23
g27
sg19
g20
sg14
I1
sg29
g30
sa(dp128
g28
g11
sg21
V1
sg22
Vr
sg15
F0.61333990097045898
sg23
g27
sg19
g20
sg14
I1
sg29
g30
sa(dp129
g28
g11
sg21
V1
sg22
Vr
sg15
F2.7169740200042725
sg23
g27
sg19
g20
sg14
I1
sg29
g30
sa(dp130
g28
g11
sg21
V1
sg22
Vr
sg15
F0.78048491477966309
sg23
g27
sg19
g20
sg14
I1
sg29
g30
sa(dp131
g28
g11
sg21
V1
sg22
Vr
sg15
F2.5416619777679443
sg23
g27
sg19
g20
sg14
I1
sg29
g30
sa(dp132
g28
g11
sg21
V1
sg22
Vr
sg15
F0.78548288345336914
sg23
g27
sg19
g20
sg14
I1
sg29
g30
sa(dp133
g28
g11
sg21
V1
sg22
Vr
sg15
F0.63363194465637207
sg23
g27
sg19
g20
sg14
I1
sg29
g30
sa(dp134
g28
g11
sg21
V1
sg22
Vr
sg15
F0.77996397018432617
sg23
g27
sg19
g20
sg14
I1
sg29
g30
sa(dp135
g28
g11
sg21
V1
sg22
Vr
sg15
F2.0174460411071777
sg23
g27
sg19
g20
sg14
I1
sg29
g30
sa(dp136
g28
g11
sg21
V1
sg22
Vr
sg15
F0.76432895660400391
sg23
g27
sg19
g20
sg14
I1
sg29
g30
sa(dp137
g28
g11
sg21
V1
sg22
Vr
sg15
F0.53808116912841797
sg23
g27
sg19
g20
sg14
I1
sg29
g30
sa(dp138
g28
g11
sg21
V1
sg22
Vr
sg15
F2.28342604637146
sg23
g27
sg19
g20
sg14
I1
sg29
g30
sa(dp139
g28
g11
sg21
V1
sg22
Vr
sg15
F2.4011669158935547
sg23
g27
sg19
g20
sg14
I0
sg29
g30
sa(dp140
g28
g11
sg21
V1
sg22
Vr
sg15
F2.3853490352630615
sg23
g27
sg19
g20
sg14
I0
sg29
g30
sa(dp141
g28
g11
sg21
V1
sg22
Vr
sg15
F0.68149900436401367
sg23
g27
sg19
g20
sg14
I1
sg29
g30
sa(dp142
g28
g11
sg21
V1
sg22
Vr
sg15
F0.63085699081420898
sg23
g27
sg19
g20
sg14
I1
sg29
g30
sa(dp143
g28
g11
sg21
V1
sg22
Vr
sg15
F0.85703301429748535
sg23
g27
sg19
g20
sg14
I1
sg29
g30
sa(dp144
g28
g11
sg21
V1
sg22
Vr
sg15
F0.7965850830078125
sg23
g27
sg19
g20
sg14
I1
sg29
g30
sa(dp145
g28
g11
sg21
V1
sg22
Vr
sg15
F0.81749892234802246
sg23
g27
sg19
g20
sg14
I1
sg29
g30
sa(dp146
g28
g11
sg21
V1
sg22
Vr
sg15
F0.83026790618896484
sg23
g27
sg19
g20
sg14
I1
sg29
g30
sa(dp147
g28
g11
sg21
V1
sg22
Vr
sg15
F0.74756884574890137
sg23
g27
sg19
g20
sg14
I1
sg29
g30
sa(dp148
g28
g11
sg21
V1
sg22
Vr
sg15
F0.76531291007995605
sg23
g27
sg19
g20
sg14
I1
sg29
g30
sa(dp149
g28
g11
sg21
V1
sg22
Vr
sg15
F0.71433806419372559
sg23
g27
sg19
g20
sg14
I1
sg29
g30
sa(dp150
g28
g11
sg21
V1
sg22
Vr
sg15
F1.6392898559570312
sg23
g27
sg19
g20
sg14
I1
sg29
g30
sa(dp151
g28
g11
sg21
V1
sg22
Vr
sg15
F0.68631696701049805
sg23
g27
sg19
g20
sg14
I1
sg29
g30
sa(dp152
g28
g11
sg21
V1
sg22
Vr
sg15
F0.58431291580200195
sg23
g27
sg19
g20
sg14
I1
sg29
g30
sa(dp153
g28
g11
sg21
V1
sg22
Vr
sg15
F2.4667789936065674
sg23
g27
sg19
g20
sg14
I0
sg29
g30
sa(dp154
g28
g11
sg21
V1
sg22
Vr
sg15
F0.69708013534545898
sg23
g27
sg19
g20
sg14
I1
sg29
g30
sa(dp155
g28
g11
sg21
V1
sg22
Vr
sg15
F0.96508193016052246
sg23
g27
sg19
g20
sg14
I1
sg29
g30
sa(dp156
g28
g11
sg21
V1
sg22
Vr
sg15
F1.8966779708862305
sg23
g27
sg19
g20
sg14
I0
sg29
g30
sa(dp157
g28
g11
sg21
V1
sg22
Vr
sg15
F0.68136811256408691
sg23
g27
sg19
g20
sg14
I1
sg29
g30
sa(dp158
g28
g11
sg21
V1
sg22
Vr
sg15
F0.62973785400390625
sg23
g27
sg19
g20
sg14
I1
sg29
g30
sa(dp159
g28
g11
sg21
V1
sg22
Vr
sg15
F2.2482609748840332
sg23
g27
sg19
g20
sg14
I1
sg29
g30
sa(dp160
g28
g11
sg21
V1
sg22
Vr
sg15
F1.082381010055542
sg23
g27
sg19
g20
sg14
I1
sg29
g30
sa(dp161
g28
g11
sg21
V1
sg22
Vr
sg15
F0.76531195640563965
sg23
g27
sg19
g20
sg14
I1
sg29
g30
sa(dp162
g28
g11
sg21
V1
sg22
Vr
sg15
F0.66300296783447266
sg23
g27
sg19
g20
sg14
I1
sg29
g30
sa(dp163
g28
g11
sg21
V1
sg22
Vr
sg15
F0.72916793823242188
sg23
g27
sg19
g20
sg14
I1
sg29
g30
sa(dp164
g28
g11
sg21
V1
sg22
Vr
sg15
F0.80317807197570801
sg23
g27
sg19
g20
sg14
I1
sg29
g30
sa(dp165
g28
g11
sg21
V1
sg22
Vr
sg15
F2.6695289611816406
sg23
g27
sg19
g20
sg14
I0
sg29
g30
sa(dp166
g28
g11
sg21
V1
sg22
Vr
sg15
F2.767956018447876
sg23
g27
sg19
g20
sg14
I0
sg29
g30
sa(dp167
g28
g11
sg21
V1
sg22
Vr
sg15
F1.9837629795074463
sg23
g27
sg19
g20
sg14
I0
sg29
g30
sa(dp168
g28
g11
sg21
V1
sg22
Vr
sg15
F0.82156515121459961
sg23
g27
sg19
g20
sg14
I1
sg29
g30
sa(dp169
g28
g11
sg21
V1
sg22
Vr
sg15
F0.68024992942810059
sg23
g27
sg19
g20
sg14
I1
sg29
g30
sa(dp170
g28
g11
sg21
V1
sg22
Vr
sg15
F0.8798980712890625
sg23
g27
sg19
g20
sg14
I1
sg29
g30
sa(dp171
g28
g11
sg21
V1
sg22
Vr
sg15
F0.86489391326904297
sg23
g27
sg19
g20
sg14
I1
sg29
g30
sa(dp172
g28
g11
sg21
V1
sg22
Vr
sg15
F0.59587907791137695
sg23
g27
sg19
g20
sg14
I1
sg29
g30
sa(dp173
g28
g11
sg21
V1
sg22
Vr
sg15
F1.5488460063934326
sg23
g27
sg19
g20
sg14
I1
sg29
g30
sa(dp174
g28
g11
sg21
V1
sg22
Vr
sg15
F1.014538049697876
sg23
g27
sg19
g20
sg14
I1
sg29
g30
sa(dp175
g28
g11
sg21
V1
sg22
Vr
sg15
F2.5246250629425049
sg23
g27
sg19
g20
sg14
I1
sg29
g30
sa(dp176
g28
g11
sg21
V1
sg22
Vr
sg15
F0.91795492172241211
sg23
g27
sg19
g20
sg14
I1
sg29
g30
sa(dp177
g28
g11
sg21
V1
sg22
Vr
sg15
F0.83202815055847168
sg23
g27
sg19
g20
sg14
I1
sg29
g30
sa(dp178
g28
g11
sg21
V1
sg22
Vr
sg15
F0.59761500358581543
sg23
g27
sg19
g20
sg14
I1
sg29
g30
sa(dp179
g28
g11
sg21
V1
sg22
Vr
sg15
F0.89811611175537109
sg23
g27
sg19
g20
sg14
I1
sg29
g30
sa(dp180
g28
g11
sg21
V1
sg22
Vr
sg15
F3.3354799747467041
sg23
g27
sg19
g20
sg14
I1
sg29
g30
sa(dp181
g28
g11
sg21
V1
sg22
Vr
sg15
F2.749859094619751
sg23
g27
sg19
g20
sg14
I1
sg29
g30
sa(dp182
g28
g11
sg21
V1
sg22
Vr
sg15
F2.3485791683197021
sg23
g27
sg19
g20
sg14
I1
sg29
g30
sa(dp183
g28
g11
sg21
V1
sg22
Vr
sg15
F0.91376686096191406
sg23
g27
sg19
g20
sg14
I1
sg29
g30
sa(dp184
g28
g11
sg21
V1
sg22
Vr
sg15
F0.81527400016784668
sg23
g27
sg19
g20
sg14
I1
sg29
g30
sa(dp185
g28
g11
sg21
V1
sg22
Vr
sg15
F2.4000179767608643
sg23
g27
sg19
g20
sg14
I1
sg29
g30
sa(dp186
g28
g11
sg21
V1
sg22
Vr
sg15
F1.2156789302825928
sg23
g27
sg19
g20
sg14
I1
sg29
g30
sa(dp187
g28
g11
sg21
V1
sg22
Vr
sg15
F0.83062100410461426
sg23
g27
sg19
g20
sg14
I1
sg29
g30
sa(dp188
g28
g11
sg21
V1
sg22
Vr
sg15
F0.68105983734130859
sg23
g27
sg19
g20
sg14
I1
sg29
g30
sa(dp189
g28
g11
sg21
V1
sg22
Vr
sg15
F0.86565017700195312
sg23
g27
sg19
g20
sg14
I1
sg29
g30
sa(dp190
g28
g11
sg21
V1
sg22
Vr
sg15
F0.74745821952819824
sg23
g27
sg19
g20
sg14
I1
sg29
g30
sa(dp191
g28
g11
sg21
V1
sg22
Vr
sg15
F0.66462111473083496
sg23
g27
sg19
g20
sg14
I1
sg29
g30
sa(dp192
g28
g11
sg21
V1
sg22
Vr
sg15
F0.82974100112915039
sg23
g27
sg19
g20
sg14
I1
sg29
g30
sa(dp193
g28
g11
sg21
V1
sg22
Vr
sg15
F2.2390720844268799
sg23
g27
sg19
g20
sg14
I0
sg29
g30
sa(dp194
g28
g11
sg21
V1
sg22
Vr
sg15
F2.7059180736541748
sg23
g27
sg19
g20
sg14
I0
sg29
g30
sa(dp195
g28
g11
sg21
V1
sg22
Vr
sg15
F0.78456401824951172
sg23
g27
sg19
g20
sg14
I1
sg29
g30
sa(dp196
g28
g11
sg21
V1
sg22
Vr
sg15
F2.2340860366821289
sg23
g27
sg19
g20
sg14
I1
sg29
g30
sa(dp197
g28
g11
sg21
V1
sg22
Vr
sg15
F2.8012459278106689
sg23
g27
sg19
g20
sg14
I0
sg29
g30
sa(dp198
g28
g11
sg21
V1
sg22
Vr
sg15
F3.1845848560333252
sg23
g27
sg19
g20
sg14
I0
sg29
g30
sa(dp199
g28
g11
sg21
V1
sg22
Vr
sg15
F0.7980201244354248
sg23
g27
sg19
g20
sg14
I1
sg29
g30
sa(dp200
g28
g11
sg21
V1
sg22
Vr
sg15
F0.84868693351745605
sg23
g27
sg19
g20
sg14
I1
sg29
g30
sa(dp201
g28
g11
sg21
V1
sg22
Vr
sg15
F0.88391399383544922
sg23
g27
sg19
g20
sg14
I1
sg29
g30
sa(dp202
g28
g11
sg21
V1
sg22
Vr
sg15
F0.6636049747467041
sg23
g27
sg19
g20
sg14
I1
sg29
g30
sa(dp203
g28
g11
sg21
V1
sg22
Vr
sg15
F0.89812898635864258
sg23
g27
sg19
g20
sg14
I1
sg29
g30
sa(dp204
g28
g11
sg21
V1
sg22
Vr
sg15
F2.1681921482086182
sg23
g27
sg19
g20
sg14
I0
sg29
g30
sa(dp205
g28
g11
sg21
V1
sg22
Vr
sg15
F0.71383881568908691
sg23
g27
sg19
g20
sg14
I1
sg29
g30
sa(dp206
g28
g11
sg21
V1
sg22
Vr
sg15
F2.0826759338378906
sg23
g27
sg19
g20
sg14
I1
sg29
g30
sa(dp207
g28
g11
sg21
V1
sg22
Vr
sg15
F0.96727108955383301
sg23
g27
sg19
g20
sg14
I1
sg29
g30
sa(dp208
g28
g11
sg21
V1
sg22
Vr
sg15
F2.3496978282928467
sg23
g27
sg19
g20
sg14
I0
sg29
g30
sa(dp209
g28
g11
sg21
V1
sg22
Vr
sg15
F2.9675908088684082
sg23
g27
sg19
g20
sg14
I0
sg29
g30
sa(dp210
g28
g11
sg21
V1
sg22
Vr
sg15
F3.0230081081390381
sg23
g27
sg19
g20
sg14
I0
sg29
g30
sa(dp211
g28
g11
sg21
V1
sg22
Vr
sg15
F1.0967018604278564
sg23
g27
sg19
g20
sg14
I1
sg29
g30
sa(dp212
g28
g11
sg21
V1
sg22
Vr
sg15
F0.78447818756103516
sg23
g27
sg19
g20
sg14
I1
sg29
g30
sa(dp213
g28
g11
sg21
V1
sg22
Vr
sg15
F0.89539098739624023
sg23
g27
sg19
g20
sg14
I1
sg29
g30
sa(dp214
g28
g11
sg21
V1
sg22
Vr
sg15
F0.69893002510070801
sg23
g27
sg19
g20
sg14
I1
sg29
g30
sa(dp215
g28
g11
sg21
V1
sg22
Vr
sg15
F2.5003049373626709
sg23
g27
sg19
g20
sg14
I0
sg29
g30
sa(dp216
g28
g11
sg21
V1
sg22
Vr
sg15
F1.0299649238586426
sg23
g27
sg19
g20
sg14
I1
sg29
g30
sa(dp217
g28
g11
sg21
V1
sg22
Vr
sg15
F2.6200230121612549
sg23
g27
sg19
g20
sg14
I0
sg29
g30
sa(dp218
g28
g11
sg21
V1
sg22
Vr
sg15
F2.7689089775085449
sg23
g27
sg19
g20
sg14
I1
sg29
g30
sa(dp219
g28
g11
sg21
V1
sg22
Vr
sg15
F0.86616206169128418
sg23
g27
sg19
g20
sg14
I1
sg29
g30
sa(dp220
g28
g11
sg21
V1
sg22
Vr
sg15
F2.3662040233612061
sg23
g27
sg19
g20
sg14
I1
sg29
g30
sa(dp221
g28
g11
sg21
V1
sg22
Vr
sg15
F2.450937032699585
sg23
g27
sg19
g20
sg14
I0
sg29
g30
sa(dp222
g28
g11
sg21
V1
sg22
Vr
sg15
F0.8148338794708252
sg23
g27
sg19
g20
sg14
I1
sg29
g30
sa(dp223
g28
g11
sg21
V1
sg22
Vr
sg15
F2.7566318511962891
sg23
g27
sg19
g20
sg14
I1
sg29
g30
sa(dp224
g28
g11
sg21
V1
sg22
Vr
sg15
F0.73098421096801758
sg23
g27
sg19
g20
sg14
I1
sg29
g30
sa(dp225
g28
g11
sg21
V1
sg22
Vr
sg15
F0.83049607276916504
sg23
g27
sg19
g20
sg14
I1
sg29
g30
sa(dp226
g28
g11
sg21
V1
sg22
Vr
sg15
F0.91370797157287598
sg23
g27
sg19
g20
sg14
I1
sg29
g30
sa(dp227
g28
g11
sg21
V1
sg22
Vr
sg15
F0.81528282165527344
sg23
g27
sg19
g20
sg14
I1
sg29
g30
sa(dp228
g28
g11
sg21
V1
sg22
Vr
sg15
F0.73172497749328613
sg23
g27
sg19
g20
sg14
I1
sg29
g30
sa(dp229
g28
g11
sg21
V1
sg22
Vr
sg15
F0.73975205421447754
sg23
g27
sg19
g20
sg14
I1
sg29
g30
sa(dp230
g28
g11
sg21
V1
sg22
Vr
sg15
F0.6980140209197998
sg23
g27
sg19
g20
sg14
I1
sg29
g30
sa(dp231
g28
g11
sg21
V1
sg22
Vr
sg15
F3.9376461505889893
sg23
g27
sg19
g20
sg14
I0
sg29
g30
sa(dp232
g28
g11
sg21
V1
sg22
Vr
sg15
F0.71435809135437012
sg23
g27
sg19
g20
sg14
I1
sg29
g30
sa(dp233
g28
g11
sg21
V1
sg22
Vr
sg15
F1.299185037612915
sg23
g27
sg19
g20
sg14
I1
sg29
g30
sa(dp234
g28
g11
sg21
V1
sg22
Vr
sg15
F0.88153195381164551
sg23
g27
sg19
g20
sg14
I1
sg29
g30
sa(dp235
g28
g11
sg21
V1
sg22
Vr
sg15
F2.133126974105835
sg23
g27
sg19
g20
sg14
I1
sg29
g30
sa(dp236
g28
g11
sg21
V1
sg22
Vr
sg15
F0.81861209869384766
sg23
g27
sg19
g20
sg14
I1
sg29
g30
sa(dp237
g28
g11
sg21
V1
sg22
Vr
sg15
F2.8182499408721924
sg23
g27
sg19
g20
sg14
I1
sg29
g30
sa(dp238
g28
g11
sg21
V1
sg22
Vr
sg15
F0.74666714668273926
sg23
g27
sg19
g20
sg14
I1
sg29
g30
sa(dp239
g28
g11
sg21
V1
sg22
Vr
sg15
F0.83135294914245605
sg23
g27
sg19
g20
sg14
I1
sg29
g30
sa(dp240
g28
g11
sg21
V1
sg22
Vr
sg15
F2.0563240051269531
sg23
g27
sg19
g20
sg14
I1
sg29
g30
sa(dp241
g28
g11
sg21
V1
sg22
Vr
sg15
F3.0898020267486572
sg23
g27
sg19
g20
sg14
I1
sg29
g30
sa(dp242
g28
g11
sg21
V1
sg22
Vr
sg15
F0.7325432300567627
sg23
g27
sg19
g20
sg14
I1
sg29
g30
sa(dp243
g28
g11
sg21
V1
sg22
Vr
sg15
F2.8650119304656982
sg23
g27
sg19
g20
sg14
I1
sg29
g30
sa(dp244
g28
g11
sg21
V1
sg22
Vr
sg15
F2.6675980091094971
sg23
g27
sg19
g20
sg14
I0
sg29
g30
sa(dp245
g28
g11
sg21
V1
sg22
Vr
sg15
F2.2833619117736816
sg23
g27
sg19
g20
sg14
I1
sg29
g30
sa(dp246
g28
g11
sg21
V1
sg22
Vr
sg15
F0.87022805213928223
sg23
g27
sg19
g20
sg14
I1
sg29
g30
sa(dp247
g28
g11
sg21
V1
sg22
Vr
sg15
F0.71510910987854004
sg23
g27
sg19
g20
sg14
I1
sg29
g30
sa(dp248
g28
g11
sg21
V1
sg22
Vr
sg15
F0.81416606903076172
sg23
g27
sg19
g20
sg14
I1
sg29
g30
sa(dp249
g28
g11
sg21
V1
sg22
Vr
sg15
F0.81444597244262695
sg23
g27
sg19
g20
sg14
I1
sg29
g30
sa(dp250
g28
g11
sg21
V1
sg22
Vr
sg15
F2.2515201568603516
sg23
g27
sg19
g20
sg14
I0
sg29
g30
sa(dp251
g28
g11
sg21
V1
sg22
Vr
sg15
F0.78197097778320312
sg23
g27
sg19
g20
sg14
I1
sg29
g30
sa(dp252
g28
g11
sg21
V1
sg22
Vr
sg15
F0.84750509262084961
sg23
g27
sg19
g20
sg14
I1
sg29
g30
sa(dp253
g28
g11
sg21
V1
sg22
Vr
sg15
F0.87240695953369141
sg23
g27
sg19
g20
sg14
I1
sg29
g30
sa(dp254
g28
g11
sg21
V1
sg22
Vr
sg15
F0.96955704689025879
sg23
g27
sg19
g20
sg14
I1
sg29
g30
sa(dp255
g28
g11
sg21
V1
sg22
Vr
sg15
F0.68241405487060547
sg23
g27
sg19
g20
sg14
I1
sg29
g30
sa(dp256
g28
g11
sg21
V1
sg22
Vr
sg15
F2.4170498847961426
sg23
g27
sg19
g20
sg14
I1
sg29
g30
sa(dp257
g28
g11
sg21
V1
sg22
Vr
sg15
F1.7944831848144531
sg23
g27
sg19
g20
sg14
I1
sg29
g30
sa(dp258
g28
g11
sg21
V1
sg22
Vr
sg15
F0.99814009666442871
sg23
g27
sg19
g20
sg14
I1
sg29
g30
sa(dp259
g28
g11
sg21
V1
sg22
Vr
sg15
F0.77355504035949707
sg23
g27
sg19
g20
sg14
I1
sg29
g30
sa(dp260
g28
g11
sg21
V1
sg22
Vr
sg15
F0.76902413368225098
sg23
g27
sg19
g20
sg14
I1
sg29
g30
sa(dp261
g28
g11
sg21
V1
sg22
Vr
sg15
F2.1339089870452881
sg23
g27
sg19
g20
sg14
I0
sg29
g30
sa(dp262
g28
g11
sg21
V1
sg22
Vr
sg15
F2.4181139469146729
sg23
g27
sg19
g20
sg14
I1
sg29
g30
sa(dp263
g28
g11
sg21
V1
sg22
Vr
sg15
F0.9479830265045166
sg23
g27
sg19
g20
sg14
I1
sg29
g30
sa(dp264
g28
g11
sg21
V1
sg22
Vr
sg15
F0.64706611633300781
sg23
g27
sg19
g20
sg14
I1
sg29
g30
sa(dp265
g28
g11
sg21
V1
sg22
Vr
sg15
F1.783944845199585
sg23
g27
sg19
g20
sg14
I1
sg29
g30
sa(dp266
g28
g11
sg21
V1
sg22
Vr
sg15
F2.5048050880432129
sg23
g27
sg19
g20
sg14
I1
sg29
g30
sa(dp267
g28
g11
sg21
V1
sg22
Vr
sg15
F0.86637091636657715
sg23
g27
sg19
g20
sg14
I1
sg29
g30
sa(dp268
g28
g11
sg21
V1
sg22
Vr
sg15
F0.78188204765319824
sg23
g27
sg19
g20
sg14
I1
sg29
g30
sa(dp269
g28
g11
sg21
V1
sg22
Vr
sg15
F0.83105897903442383
sg23
g27
sg19
g20
sg14
I1
sg29
g30
sa(dp270
g28
g11
sg21
V1
sg22
Vr
sg15
F0.76387715339660645
sg23
g27
sg19
g20
sg14
I1
sg29
g30
sa(dp271
g28
g11
sg21
V1
sg22
Vr
sg15
F0.96475887298583984
sg23
g27
sg19
g20
sg14
I1
sg29
g30
sa(dp272
g28
g11
sg21
V1
sg22
Vr
sg15
F0.72992396354675293
sg23
g27
sg19
g20
sg14
I1
sg29
g30
sa(dp273
g28
g11
sg21
V1
sg22
Vr
sg15
F0.70203113555908203
sg23
g27
sg19
g20
sg14
I1
sg29
g30
sa(dp274
g28
g11
sg21
V1
sg22
Vr
sg15
F0.78209590911865234
sg23
g27
sg19
g20
sg14
I1
sg29
g30
sa(dp275
g28
g11
sg21
V1
sg22
Vr
sg15
F0.76543402671813965
sg23
g27
sg19
g20
sg14
I1
sg29
g30
sa(dp276
g28
g11
sg21
V1
sg22
Vr
sg15
F3.1856589317321777
sg23
g27
sg19
g20
sg14
I1
sg29
g30
sa(dp277
g28
g11
sg21
V1
sg22
Vr
sg15
F2.383469820022583
sg23
g27
sg19
g20
sg14
I1
sg29
g30
sa(dp278
g28
g11
sg21
V1
sg22
Vr
sg15
F2.7395110130310059
sg23
g27
sg19
g20
sg14
I1
sg29
g30
sa(dp279
g28
g11
sg21
V1
sg22
Vr
sg15
F0.70046901702880859
sg23
g27
sg19
g20
sg14
I1
sg29
g30
sa(dp280
g28
g11
sg21
V1
sg22
Vr
sg15
F0.79994702339172363
sg23
g27
sg19
g20
sg14
I1
sg29
g30
sa(dp281
g28
g11
sg21
V1
sg22
Vr
sg15
F0.68212199211120605
sg23
g27
sg19
g20
sg14
I1
sg29
g30
sa(dp282
g28
g11
sg21
V1
sg22
Vr
sg15
F0.7970888614654541
sg23
g27
sg19
g20
sg14
I1
sg29
g30
sa(dp283
g28
g11
sg21
V1
sg22
Vr
sg15
F0.66378307342529297
sg23
g27
sg19
g20
sg14
I1
sg29
g30
sa(dp284
g28
g11
sg21
V1
sg22
Vr
sg15
F2.8064498901367188
sg23
g27
sg19
g20
sg14
I1
sg29
g30
sa(dp285
g28
g11
sg21
V1
sg22
Vr
sg15
F0.79716110229492188
sg23
g27
sg19
g20
sg14
I1
sg29
g30
sa(dp286
g28
g11
sg21
V1
sg22
Vr
sg15
F2.5522091388702393
sg23
g27
sg19
g20
sg14
I1
sg29
g30
sa(dp287
g28
g11
sg21
V1
sg22
Vr
sg15
F2.2000589370727539
sg23
g27
sg19
g20
sg14
I0
sg29
g30
sa(dp288
g28
g11
sg21
V1
sg22
Vr
sg15
F2.0433578491210938
sg23
g27
sg19
g20
sg14
I1
sg29
g30
sa(dp289
g28
g11
sg21
V1
sg22
Vr
sg15
F0.78755521774291992
sg23
g27
sg19
g20
sg14
I1
sg29
g30
sa(dp290
g28
g11
sg21
V1
sg22
Vr
sg15
F0.89793491363525391
sg23
g27
sg19
g20
sg14
I1
sg29
g30
sa(dp291
g28
g11
sg21
V1
sg22
Vr
sg15
F0.80172109603881836
sg23
g27
sg19
g20
sg14
I1
sg29
g30
sa(dp292
g28
g11
sg21
V1
sg22
Vr
sg15
F2.4501140117645264
sg23
g27
sg19
g20
sg14
I1
sg29
g30
sa(dp293
g28
g11
sg21
V1
sg22
Vr
sg15
F0.81315302848815918
sg23
g27
sg19
g20
sg14
I1
sg29
g30
sa(dp294
g28
g11
sg21
V1
sg22
Vr
sg15
F2.8941638469696045
sg23
g27
sg19
g20
sg14
I0
sg29
g30
sa(dp295
g28
g11
sg21
V1
sg22
Vr
sg15
F0.90492796897888184
sg23
g27
sg19
g20
sg14
I1
sg29
g30
sa(dp296
g28
g11
sg21
V1
sg22
Vr
sg15
F0.82204890251159668
sg23
g27
sg19
g20
sg14
I1
sg29
g30
sa(dp297
g28
g11
sg21
V1
sg22
Vr
sg15
F2.0660371780395508
sg23
g27
sg19
g20
sg14
I1
sg29
g30
sa(dp298
g28
g11
sg21
V1
sg22
Vr
sg15
F2.3672981262207031
sg23
g27
sg19
g20
sg14
I0
sg29
g30
sa(dp299
g28
g11
sg21
V1
sg22
Vr
sg15
F1.5487611293792725
sg23
g27
sg19
g20
sg14
I1
sg29
g30
sa(dp300
g28
g11
sg21
V1
sg22
Vr
sg15
F0.84798502922058105
sg23
g27
sg19
g20
sg14
I1
sg29
g30
sa(dp301
g28
g11
sg21
V1
sg22
Vr
sg15
F2.5909559726715088
sg23
g27
sg19
g20
sg14
I0
sg29
g30
sa(dp302
g28
g11
sg21
V1
sg22
Vr
sg15
F2.5209460258483887
sg23
g27
sg19
g20
sg14
I0
sg29
g30
sa(dp303
g28
g11
sg21
V1
sg22
Vr
sg15
F0.83383798599243164
sg23
g27
sg19
g20
sg14
I1
sg29
g30
sa(dp304
g28
g11
sg21
V1
sg22
Vr
sg15
F0.93135190010070801
sg23
g27
sg19
g20
sg14
I1
sg29
g30
sa(dp305
g28
g11
sg21
V1
sg22
Vr
sg15
F2.3672528266906738
sg23
g27
sg19
g20
sg14
I1
sg29
g30
sa(dp306
g28
g11
sg21
V1
sg22
Vr
sg15
F1.2105741500854492
sg23
g27
sg19
g20
sg14
I1
sg29
g30
sa(dp307
g28
g11
sg21
V1
sg22
Vr
sg15
F0.74587798118591309
sg23
g27
sg19
g20
sg14
I1
sg29
g30
sa(dp308
g28
g11
sg21
V1
sg22
Vr
sg15
F0.91231203079223633
sg23
g27
sg19
g20
sg14
I1
sg29
g30
sa(dp309
g28
g11
sg21
V1
sg22
Vr
sg15
F0.83474993705749512
sg23
g27
sg19
g20
sg14
I1
sg29
g30
sa(dp310
g28
g11
sg21
V1
sg22
Vr
sg15
F0.84934592247009277
sg23
g27
sg19
g20
sg14
I1
sg29
g30
sa(dp311
g28
g11
sg21
V1
sg22
Vr
sg15
F2.4833910465240479
sg23
g27
sg19
g20
sg14
I0
sg29
g30
sa(dp312
g28
g11
sg21
V1
sg22
Vr
sg15
F0.84719204902648926
sg23
g27
sg19
g20
sg14
I1
sg29
g30
sa(dp313
g28
g11
sg21
V1
sg22
Vr
sg15
F1.8206241130828857
sg23
g27
sg19
g20
sg14
I1
sg29
g30
sa(dp314
g28
g11
sg21
V1
sg22
Vr
sg15
F2.4693009853363037
sg23
g27
sg19
g20
sg14
I0
sg29
g30
sa(dp315
g28
g11
sg21
V1
sg22
Vr
sg15
F2.4285480976104736
sg23
g27
sg19
g20
sg14
I1
sg29
g30
sa(dp316
g28
g11
sg21
V1
sg22
Vr
sg15
F2.7521419525146484
sg23
g27
sg19
g20
sg14
I0
sg29
g30
sa(dp317
g28
g11
sg21
V1
sg22
Vr
sg15
F3.7355420589447021
sg23
g27
sg19
g20
sg14
I0
sg29
g30
sa(dp318
g28
g11
sg21
V1
sg22
Vr
sg15
F2.9088230133056641
sg23
g27
sg19
g20
sg14
I1
sg29
g30
sa(dp319
g28
g11
sg21
V1
sg22
Vr
sg15
F2.7728419303894043
sg23
g27
sg19
g20
sg14
I1
sg29
g30
sa(dp320
g28
g11
sg21
V1
sg22
Vr
sg15
F1.3170650005340576
sg23
g27
sg19
g20
sg14
I1
sg29
g30
sa(dp321
g28
g11
sg21
V1
sg22
Vr
sg15
F1.1310739517211914
sg23
g27
sg19
g20
sg14
I1
sg29
g30
sa(dp322
g28
g11
sg21
V1
sg22
Vr
sg15
F0.82832908630371094
sg23
g27
sg19
g20
sg14
I1
sg29
g30
sa(dp323
g28
g11
sg21
V1
sg22
Vr
sg15
F1.0658440589904785
sg23
g27
sg19
g20
sg14
I1
sg29
g30
sa(dp324
g28
g11
sg21
V1
sg22
Vr
sg15
F3.0092639923095703
sg23
g27
sg19
g20
sg14
I1
sg29
g30
sa(dp325
g28
g11
sg21
V1
sg22
Vr
sg15
F0.80053520202636719
sg23
g27
sg19
g20
sg14
I1
sg29
g30
sa(dp326
g28
g11
sg21
V1
sg22
Vr
sg15
F3.6035470962524414
sg23
g27
sg19
g20
sg14
I0
sg29
g30
sa(dp327
g28
g11
sg21
V1
sg22
Vr
sg15
F1.1816589832305908
sg23
g27
sg19
g20
sg14
I1
sg29
g30
sa(dp328
g28
g11
sg21
V1
sg22
Vr
sg15
F0.94807696342468262
sg23
g27
sg19
g20
sg14
I1
sg29
g30
sa(dp329
g28
g11
sg21
V1
sg22
Vr
sg15
F0.76410794258117676
sg23
g27
sg19
g20
sg14
I1
sg29
g30
sa(dp330
g28
g11
sg21
V1
sg22
Vr
sg15
F2.5054259300231934
sg23
g27
sg19
g20
sg14
I1
sg29
g30
sa(dp331
g28
g11
sg21
V1
sg22
Vr
sg15
F2.1681709289550781
sg23
g27
sg19
g20
sg14
I0
sg29
g30
sa(dp332
g28
g11
sg21
V1
sg22
Vr
sg15
F1.0835731029510498
sg23
g27
sg19
g20
sg14
I1
sg29
g30
sa(dp333
g28
g11
sg21
V1
sg22
Vr
sg15
F0.8133091926574707
sg23
g27
sg19
g20
sg14
I1
sg29
g30
sa(dp334
g28
g11
sg21
V1
sg22
Vr
sg15
F2.5325660705566406
sg23
g27
sg19
g20
sg14
I0
sg29
g30
sa(dp335
g28
g11
sg21
V1
sg22
Vr
sg15
F2.9088380336761475
sg23
g27
sg19
g20
sg14
I0
sg29
g30
sa(dp336
g28
g11
sg21
V1
sg22
Vr
sg15
F2.6053380966186523
sg23
g27
sg19
g20
sg14
I1
sg29
g30
sa(dp337
g28
g11
sg21
V1
sg22
Vr
sg15
F2.5340909957885742
sg23
g27
sg19
g20
sg14
I0
sg29
g30
sa(dp338
g28
g11
sg21
V1
sg22
Vr
sg15
F0.83076810836791992
sg23
g27
sg19
g20
sg14
I1
sg29
g30
sa(dp339
g28
g11
sg21
V1
sg22
Vr
sg15
F1.7339770793914795
sg23
g27
sg19
g20
sg14
I1
sg29
g30
sa(dp340
g28
g11
sg21
V1
sg22
Vr
sg15
F0.84842610359191895
sg23
g27
sg19
g20
sg14
I1
sg29
g30
sa(dp341
g28
g11
sg21
V1
sg22
Vr
sg15
F0.88720297813415527
sg23
g27
sg19
g20
sg14
I1
sg29
g30
sa(dp342
g28
g11
sg21
V1
sg22
Vr
sg15
F2.0844027996063232
sg23
g27
sg19
g20
sg14
I1
sg29
g30
sa(dp343
g28
g11
sg21
V1
sg22
Vr
sg15
F3.0856049060821533
sg23
g27
sg19
g20
sg14
I1
sg29
g30
sa(dp344
g28
g11
sg21
V1
sg22
Vr
sg15
F2.451509952545166
sg23
g27
sg19
g20
sg14
I0
sg29
g30
sa(dp345
g28
g11
sg21
V1
sg22
Vr
sg15
F0.77921700477600098
sg23
g27
sg19
g20
sg14
I1
sg29
g30
sa(dp346
g28
g11
sg21
V1
sg22
Vr
sg15
F2.8685071468353271
sg23
g27
sg19
g20
sg14
I0
sg29
g30
sa(dp347
g28
g11
sg21
V1
sg22
Vr
sg15
F0.77232003211975098
sg23
g27
sg19
g20
sg14
I1
sg29
g30
sa(dp348
g28
g11
sg21
V1
sg22
Vr
sg15
F0.80399703979492188
sg23
g27
sg19
g20
sg14
I1
sg29
g30
sa(dp349
g28
g11
sg21
V1
sg22
Vr
sg15
F2.9201171398162842
sg23
g27
sg19
g20
sg14
I0
sg29
g30
sa(dp350
g28
g11
sg21
V1
sg22
Vr
sg15
F0.9651329517364502
sg23
g27
sg19
g20
sg14
I1
sg29
g30
sa(dp351
g28
g11
sg21
V1
sg22
Vr
sg15
F0.84805917739868164
sg23
g27
sg19
g20
sg14
I1
sg29
g30
sa(dp352
g28
g11
sg21
V1
sg22
Vr
sg15
F2.0149741172790527
sg23
g27
sg19
g20
sg14
I1
sg29
g30
sa(dp353
g28
g11
sg21
V1
sg22
Vr
sg15
F1.8715629577636719
sg23
g27
sg19
g20
sg14
I1
sg29
g30
sa(dp354
g28
g11
sg21
V1
sg22
Vr
sg15
F0.93381381034851074
sg23
g27
sg19
g20
sg14
I1
sg29
g30
sa(dp355
g28
g11
sg21
V1
sg22
Vr
sg15
F0.83162593841552734
sg23
g27
sg19
g20
sg14
I1
sg29
g30
sa(dp356
g28
g11
sg21
V1
sg22
Vr
sg15
F0.84767913818359375
sg23
g27
sg19
g20
sg14
I1
sg29
g30
sa(dp357
g28
g11
sg21
V1
sg22
Vr
sg15
F1.8665969371795654
sg23
g27
sg19
g20
sg14
I1
sg29
g30
sa(dp358
g28
g11
sg21
V1
sg22
Vr
sg15
F1.2067561149597168
sg23
g27
sg19
g20
sg14
I1
sg29
g30
sa(dp359
g28
g11
sg21
V1
sg22
Vr
sg15
F0.76393699645996094
sg23
g27
sg19
g20
sg14
I1
sg29
g30
sa(dp360
g28
g11
sg21
V1
sg22
Vr
sg15
F2.0382568836212158
sg23
g27
sg19
g20
sg14
I1
sg29
g30
sa(dp361
g28
g11
sg21
V1
sg22
Vr
sg15
F0.89813113212585449
sg23
g27
sg19
g20
sg14
I1
sg29
g30
sa(dp362
g28
g11
sg21
V1
sg22
Vr
sg15
F0.71501302719116211
sg23
g27
sg19
g20
sg14
I1
sg29
g30
sa(dp363
g28
g11
sg21
V1
sg22
Vr
sg15
F0.74903607368469238
sg23
g27
sg19
g20
sg14
I1
sg29
g30
sa(dp364
g28
g11
sg21
V1
sg22
Vr
sg15
F0.69695901870727539
sg23
g27
sg19
g20
sg14
I1
sg29
g30
sa(dp365
g28
g11
sg21
V1
sg22
Vr
sg15
F0.84923887252807617
sg23
g27
sg19
g20
sg14
I1
sg29
g30
sa(dp366
g28
g11
sg21
V1
sg22
Vr
sg15
F2.7557570934295654
sg23
g27
sg19
g20
sg14
I0
sg29
g30
sa(dp367
g28
g11
sg21
V1
sg22
Vr
sg15
F2.2960801124572754
sg23
g27
sg19
g20
sg14
I1
sg29
g30
sa(dp368
g28
g11
sg21
V1
sg22
Vr
sg15
F2.5287721157073975
sg23
g27
sg19
g20
sg14
I0
sg29
g30
sa(dp369
g28
g11
sg21
V1
sg22
Vr
sg15
F0.98111581802368164
sg23
g27
sg19
g20
sg14
I1
sg29
g30
sa(dp370
g28
g11
sg21
V1
sg22
Vr
sg15
F2.9191129207611084
sg23
g27
sg19
g20
sg14
I0
sg29
g30
sa(dp371
g28
g11
sg21
V1
sg22
Vr
sg15
F0.75577402114868164
sg23
g27
sg19
g20
sg14
I1
sg29
g30
sa(dp372
g28
g11
sg21
V1
sg22
Vr
sg15
F0.81844806671142578
sg23
g27
sg19
g20
sg14
I1
sg29
g30
sa(dp373
g28
g11
sg21
V1
sg22
Vr
sg15
F1.0774350166320801
sg23
g27
sg19
g20
sg14
I1
sg29
g30
sa(dp374
g28
g11
sg21
V1
sg22
Vr
sg15
F1.8159449100494385
sg23
g27
sg19
g20
sg14
I1
sg29
g30
sa(dp375
g28
g11
sg21
V1
sg22
Vr
sg15
F0.81891894340515137
sg23
g27
sg19
g20
sg14
I1
sg29
g30
sa(dp376
g28
g11
sg21
V1
sg22
Vr
sg15
F2.7260329723358154
sg23
g27
sg19
g20
sg14
I1
sg29
g30
sa(dp377
g28
g11
sg21
V1
sg22
Vr
sg15
F0.91233301162719727
sg23
g27
sg19
g20
sg14
I1
sg29
g30
sa(dp378
g28
g11
sg21
V1
sg22
Vr
sg15
F0.80115199089050293
sg23
g27
sg19
g20
sg14
I1
sg29
g30
sa(dp379
g28
g11
sg21
V1
sg22
Vr
sg15
F2.149824857711792
sg23
g27
sg19
g20
sg14
I1
sg29
g30
sa(dp380
g28
g11
sg21
V1
sg22
Vr
sg15
F2.215411901473999
sg23
g27
sg19
g20
sg14
I1
sg29
g30
sa(dp381
g28
g11
sg21
V1
sg22
Vr
sg15
F3.118649959564209
sg23
g27
sg19
g20
sg14
I1
sg29
g30
sa(dp382
g28
g11
sg21
V1
sg22
Vr
sg15
F2.6172060966491699
sg23
g27
sg19
g20
sg14
I0
sg29
g30
sa(dp383
g28
g11
sg21
V1
sg22
Vr
sg15
F2.6567001342773438
sg23
g27
sg19
g20
sg14
I1
sg29
g30
sa(dp384
g28
g11
sg21
V1
sg22
Vr
sg15
F0.81687593460083008
sg23
g27
sg19
g20
sg14
I1
sg29
g30
sa(dp385
g28
g11
sg21
V1
sg22
Vr
sg15
F3.8871960639953613
sg23
g27
sg19
g20
sg14
I1
sg29
g30
sa(dp386
g28
g11
sg21
V1
sg22
Vr
sg15
F0.81361508369445801
sg23
g27
sg19
g20
sg14
I1
sg29
g30
sa(dp387
g28
g11
sg21
V1
sg22
Vr
sg15
F2.5008978843688965
sg23
g27
sg19
g20
sg14
I1
sg29
g30
sa(dp388
g28
g11
sg21
V1
sg22
Vr
sg15
F0.91347694396972656
sg23
g27
sg19
g20
sg14
I1
sg29
g30
sa(dp389
g28
g11
sg21
V1
sg22
Vr
sg15
F0.8142390251159668
sg23
g27
sg19
g20
sg14
I1
sg29
g30
sa(dp390
g28
g11
sg21
V1
sg22
Vr
sg15
F0.76458191871643066
sg23
g27
sg19
g20
sg14
I1
sg29
g30
sa(dp391
g28
g11
sg21
V1
sg22
Vr
sg15
F0.8323051929473877
sg23
g27
sg19
g20
sg14
I1
sg29
g30
sa(dp392
g28
g11
sg21
V1
sg22
Vr
sg15
F2.6169688701629639
sg23
g27
sg19
g20
sg14
I1
sg29
g30
sa(dp393
g28
g11
sg21
V1
sg22
Vr
sg15
F1.0138359069824219
sg23
g27
sg19
g20
sg14
I1
sg29
g30
sa(dp394
g28
g11
sg21
V1
sg22
Vr
sg15
F0.71998119354248047
sg23
g27
sg19
g20
sg14
I1
sg29
g30
sa(dp395
g28
g11
sg21
V1
sg22
Vr
sg15
F0.96474909782409668
sg23
g27
sg19
g20
sg14
I1
sg29
g30
sa(dp396
g28
g11
sg21
V1
sg22
Vr
sg15
F2.152026891708374
sg23
g27
sg19
g20
sg14
I1
sg29
g30
sa(dp397
g28
g11
sg21
V1
sg22
Vr
sg15
F2.2331798076629639
sg23
g27
sg19
g20
sg14
I1
sg29
g30
sa(dp398
g28
g11
sg21
V1
sg22
Vr
sg15
F0.93262982368469238
sg23
g27
sg19
g20
sg14
I1
sg29
g30
sa(dp399
g28
g11
sg21
V1
sg22
Vr
sg15
F0.8317558765411377
sg23
g27
sg19
g20
sg14
I1
sg29
g30
sa(dp400
g28
g11
sg21
V1
sg22
Vr
sg15
F1.7707269191741943
sg23
g27
sg19
g20
sg14
I0
sg29
g30
sa(dp401
g28
g11
sg21
V1
sg22
Vr
sg15
F1.6672759056091309
sg23
g27
sg19
g20
sg14
I1
sg29
g30
sa(dp402
g28
g11
sg21
V1
sg22
Vr
sg15
F0.8193519115447998
sg23
g27
sg19
g20
sg14
I1
sg29
g30
sa(dp403
g28
g11
sg21
V1
sg22
Vr
sg15
F2.1171419620513916
sg23
g27
sg19
g20
sg14
I1
sg29
g30
sa(dp404
g28
g11
sg21
V1
sg22
Vr
sg15
F0.88249707221984863
sg23
g27
sg19
g20
sg14
I1
sg29
g30
sa(dp405
g28
g11
sg21
V1
sg22
Vr
sg15
F2.7677731513977051
sg23
g27
sg19
g20
sg14
I0
sg29
g30
sa(dp406
g28
g11
sg21
V1
sg22
Vr
sg15
F2.6511299610137939
sg23
g27
sg19
g20
sg14
I1
sg29
g30
sa(dp407
g28
g11
sg21
V1
sg22
Vr
sg15
F2.0346188545227051
sg23
g27
sg19
g20
sg14
I1
sg29
g30
sa(dp408
g28
g11
sg21
V1
sg22
Vr
sg15
F0.84917497634887695
sg23
g27
sg19
g20
sg14
I1
sg29
g30
sa(dp409
g28
g11
sg21
V1
sg22
Vr
sg15
F2.117056131362915
sg23
g27
sg19
g20
sg14
I1
sg29
g30
sa(dp410
g28
g11
sg21
V1
sg22
Vr
sg15
F2.6509380340576172
sg23
g27
sg19
g20
sg14
I1
sg29
g30
sa(dp411
g28
g11
sg21
V1
sg22
Vr
sg15
F2.0163280963897705
sg23
g27
sg19
g20
sg14
I0
sg29
g30
sa(dp412
g28
g11
sg21
V1
sg22
Vr
sg15
F2.3570680618286133
sg23
g27
sg19
g20
sg14
I0
sg29
g30
sa(dp413
g28
g11
sg21
V1
sg22
Vr
sg15
F0.87409615516662598
sg23
g27
sg19
g20
sg14
I1
sg29
g30
sa(dp414
g28
g11
sg21
V1
sg22
Vr
sg15
F2.6187989711761475
sg23
g27
sg19
g20
sg14
I1
sg29
g30
sa(dp415
g28
g11
sg21
V1
sg22
Vr
sg15
F1.2492001056671143
sg23
g27
sg19
g20
sg14
I1
sg29
g30
sa(dp416
g28
g11
sg21
V1
sg22
Vr
sg15
F1.983314037322998
sg23
g27
sg19
g20
sg14
I1
sg29
g30
sa(dp417
g28
g11
sg21
V1
sg22
Vr
sg15
F2.634023904800415
sg23
g27
sg19
g20
sg14
I0
sg29
g30
sa(dp418
g28
g11
sg21
V1
sg22
Vr
sg15
F0.72071599960327148
sg23
g27
sg19
g20
sg14
I1
sg29
g30
sa(dp419
g28
g11
sg21
V1
sg22
Vr
sg15
F2.5506789684295654
sg23
g27
sg19
g20
sg14
I0
sg29
g30
sa(dp420
g28
g11
sg21
V1
sg22
Vr
sg15
F0.76657795906066895
sg23
g27
sg19
g20
sg14
I1
sg29
g30
sa(dp421
g28
g11
sg21
V1
sg22
Vr
sg15
F1.5505409240722656
sg23
g27
sg19
g20
sg14
I1
sg29
g30
sa(dp422
g28
g11
sg21
V1
sg22
Vr
sg15
F0.96267104148864746
sg23
g27
sg19
g20
sg14
I1
sg29
g30
sa(dp423
g28
g11
sg21
V1
sg22
Vr
sg15
F2.6337959766387939
sg23
g27
sg19
g20
sg14
I1
sg29
g30
sa(dp424
g28
g11
sg21
V1
sg22
Vr
sg15
F0.9637761116027832
sg23
g27
sg19
g20
sg14
I1
sg29
g30
sa(dp425
g28
g11
sg21
V1
sg22
Vr
sg15
F2.4853308200836182
sg23
g27
sg19
g20
sg14
I1
sg29
g30
sa(dp426
g28
g11
sg21
V1
sg22
Vr
sg15
F0.89685511589050293
sg23
g27
sg19
g20
sg14
I1
sg29
g30
sa(dp427
g28
g11
sg21
V1
sg22
Vr
sg15
F0.99988508224487305
sg23
g27
sg19
g20
sg14
I1
sg29
g30
sa(dp428
g28
g11
sg21
V1
sg22
Vr
sg15
F0.88156294822692871
sg23
g27
sg19
g20
sg14
I1
sg29
g30
sa(dp429
g28
g11
sg21
V1
sg22
Vr
sg15
F1.060291051864624
sg23
g27
sg19
g20
sg14
I1
sg29
g30
sa(dp430
g28
g11
sg21
V1
sg22
Vr
sg15
F2.8627529144287109
sg23
g27
sg19
g20
sg14
I0
sg29
g30
sa(dp431
g28
g11
sg21
V1
sg22
Vr
sg15
F2.684459924697876
sg23
g27
sg19
g20
sg14
I1
sg29
g30
sa(dp432
g28
g11
sg21
V1
sg22
Vr
sg15
F1.9697639942169189
sg23
g27
sg19
g20
sg14
I1
sg29
g30
sa(dp433
g28
g11
sg21
V1
sg22
Vr
sg15
F2.5017728805541992
sg23
g27
sg19
g20
sg14
I1
sg29
g30
sa(dp434
g28
g11
sg21
V1
sg22
Vr
sg15
F2.6846029758453369
sg23
g27
sg19
g20
sg14
I0
sg29
g30
sa(dp435
g28
g11
sg21
V1
sg22
Vr
sg15
F0.78012609481811523
sg23
g27
sg19
g20
sg14
I1
sg29
g30
sa(dp436
g28
g11
sg21
V1
sg22
Vr
sg15
F2.8432648181915283
sg23
g27
sg19
g20
sg14
I1
sg29
g30
sa(dp437
g28
g11
sg21
V1
sg22
Vr
sg15
F2.9879550933837891
sg23
g27
sg19
g20
sg14
I1
sg29
g30
sa(dp438
g28
g11
sg21
V1
sg22
Vr
sg15
F0.84807705879211426
sg23
g27
sg19
g20
sg14
I1
sg29
g30
sa(dp439
g28
g11
sg21
V1
sg22
Vr
sg15
F2.5333220958709717
sg23
g27
sg19
g20
sg14
I1
sg29
g30
sa(dp440
g28
g11
sg21
V1
sg22
Vr
sg15
F1.0296409130096436
sg23
g27
sg19
g20
sg14
I1
sg29
g30
sa(dp441
g28
g11
sg21
V1
sg22
Vr
sg15
F2.2490930557250977
sg23
g27
sg19
g20
sg14
I0
sg29
g30
sa(dp442
g28
g11
sg21
V1
sg22
Vr
sg15
F2.585068941116333
sg23
g27
sg19
g20
sg14
I0
sg29
g30
sa(dp443
g28
g11
sg21
V1
sg22
Vr
sg15
F0.96989297866821289
sg23
g27
sg19
g20
sg14
I1
sg29
g30
sa(dp444
g28
g11
sg21
V1
sg22
Vr
sg15
F2.3673520088195801
sg23
g27
sg19
g20
sg14
I1
sg29
g30
sa(dp445
g28
g11
sg21
V1
sg22
Vr
sg15
F2.3510010242462158
sg23
g27
sg19
g20
sg14
I1
sg29
g30
sa(dp446
g28
g11
sg21
V1
sg22
Vr
sg15
F0.87823796272277832
sg23
g27
sg19
g20
sg14
I1
sg29
g30
sa(dp447
g28
g11
sg21
V1
sg22
Vr
sg15
F2.7411701679229736
sg23
g27
sg19
g20
sg14
I1
sg29
g30
sa(dp448
g28
g11
sg21
V1
sg22
Vr
sg15
F2.6891200542449951
sg23
g27
sg19
g20
sg14
I1
sg29
g30
sa(dp449
g28
g11
sg21
V1
sg22
Vr
sg15
F0.83103513717651367
sg23
g27
sg19
g20
sg14
I1
sg29
g30
sa(dp450
g28
g11
sg21
V1
sg22
Vr
sg15
F1.0988340377807617
sg23
g27
sg19
g20
sg14
I1
sg29
g30
sa(dp451
g28
g11
sg21
V1
sg22
Vr
sg15
F2.6018290519714355
sg23
g27
sg19
g20
sg14
I1
sg29
g30
sa(dp452
g28
g11
sg21
V1
sg22
Vr
sg15
F0.89927101135253906
sg23
g27
sg19
g20
sg14
I1
sg29
g30
sa(dp453
g28
g11
sg21
V1
sg22
Vr
sg15
F0.92106485366821289
sg23
g27
sg19
g20
sg14
I1
sg29
g30
sa(dp454
g28
g11
sg21
V1
sg22
Vr
sg15
F2.7054800987243652
sg23
g27
sg19
g20
sg14
I0
sg29
g30
sa(dp455
g28
g11
sg21
V1
sg22
Vr
sg15
F2.719959020614624
sg23
g27
sg19
g20
sg14
I0
sg29
g30
sa(dp456
g28
g11
sg21
V1
sg22
Vr
sg15
F0.89732694625854492
sg23
g27
sg19
g20
sg14
I1
sg29
g30
sa(dp457
g28
g11
sg21
V1
sg22
Vr
sg15
F3.3352811336517334
sg23
g27
sg19
g20
sg14
I0
sg29
g30
sa(dp458
g28
g11
sg21
V1
sg22
Vr
sg15
F0.95889902114868164
sg23
g27
sg19
g20
sg14
I1
sg29
g30
sa(dp459
g28
g11
sg21
V1
sg22
Vr
sg15
F1.1995019912719727
sg23
g27
sg19
g20
sg14
I1
sg29
g30
sa(dp460
g28
g11
sg21
V1
sg22
Vr
sg15
F0.81389594078063965
sg23
g27
sg19
g20
sg14
I1
sg29
g30
sa(dp461
g28
g11
sg21
V1
sg22
Vr
sg15
F2.7343361377716064
sg23
g27
sg19
g20
sg14
I0
sg29
g30
sa(dp462
g28
g11
sg21
V1
sg22
Vr
sg15
F2.8005578517913818
sg23
g27
sg19
g20
sg14
I1
sg29
g30
sa(dp463
g28
g11
sg21
V1
sg22
Vr
sg15
F2.484044075012207
sg23
g27
sg19
g20
sg14
I1
sg29
g30
sa(dp464
g28
g11
sg21
V1
sg22
Vr
sg15
F2.4390449523925781
sg23
g27
sg19
g20
sg14
I0
sg29
g30
sa(dp465
g28
g11
sg21
V1
sg22
Vr
sg15
F2.6884341239929199
sg23
g27
sg19
g20
sg14
I1
sg29
g30
sa(dp466
g28
g11
sg21
V1
sg22
Vr
sg15
F0.95177316665649414
sg23
g27
sg19
g20
sg14
I1
sg29
g30
sa(dp467
g28
g11
sg21
V1
sg22
Vr
sg15
F2.7847590446472168
sg23
g27
sg19
g20
sg14
I0
sg29
g30
sa(dp468
g28
g11
sg21
V1
sg22
Vr
sg15
F2.4675028324127197
sg23
g27
sg19
g20
sg14
I0
sg29
g30
sa(dp469
g28
g11
sg21
V1
sg22
Vr
sg15
F2.2327811717987061
sg23
g27
sg19
g20
sg14
I1
sg29
g30
sa(dp470
g28
g11
sg21
V1
sg22
Vr
sg15
F2.7677240371704102
sg23
g27
sg19
g20
sg14
I1
sg29
g30
sa(dp471
g28
g11
sg21
V1
sg22
Vr
sg15
F2.6700229644775391
sg23
g27
sg19
g20
sg14
I0
sg29
g30
sa(dp472
g28
g11
sg21
V1
sg22
Vr
sg15
F2.2006270885467529
sg23
g27
sg19
g20
sg14
I1
sg29
g30
sa(dp473
g28
g11
sg21
V1
sg22
Vr
sg15
F1.1147630214691162
sg23
g27
sg19
g20
sg14
I1
sg29
g30
sa(dp474
g28
g11
sg21
V1
sg22
Vr
sg15
F0.84876608848571777
sg23
g27
sg19
g20
sg14
I1
sg29
g30
sa(dp475
g28
g11
sg21
V1
sg22
Vr
sg15
F2.1879379749298096
sg23
g27
sg19
g20
sg14
I1
sg29
g30
sa(dp476
g28
g11
sg21
V1
sg22
Vr
sg15
F4.1529490947723389
sg23
g27
sg19
g20
sg14
I0
sg29
g30
sa(dp477
g28
g11
sg21
V1
sg22
Vr
sg15
F2.8362321853637695
sg23
g27
sg19
g20
sg14
I0
sg29
g30
sa(dp478
g28
g11
sg21
V1
sg22
Vr
sg15
F2.5521628856658936
sg23
g27
sg19
g20
sg14
I1
sg29
g30
sa(dp479
g28
g11
sg21
V1
sg22
Vr
sg15
F2.7168660163879395
sg23
g27
sg19
g20
sg14
I1
sg29
g30
sa(dp480
g28
g11
sg21
V1
sg22
Vr
sg15
F2.3996860980987549
sg23
g27
sg19
g20
sg14
I0
sg29
g30
sa(dp481
g28
g11
sg21
V1
sg22
Vr
sg15
F3.1221849918365479
sg23
g27
sg19
g20
sg14
I1
sg29
g30
sa(dp482
g28
g11
sg21
V1
sg22
Vr
sg15
F3.1513857841491699
sg23
g27
sg19
g20
sg14
I1
sg29
g30
sa(dp483
g28
g11
sg21
V1
sg22
Vr
sg15
F2.6485400199890137
sg23
g27
sg19
g20
sg14
I1
sg29
g30
sa(dp484
g28
g11
sg21
V1
sg22
Vr
sg15
F0.93052315711975098
sg23
g27
sg19
g20
sg14
I1
sg29
g30
sa(dp485
g28
g11
sg21
V1
sg22
Vr
sg15
F2.2061178684234619
sg23
g27
sg19
g20
sg14
I1
sg29
g30
sa(dp486
g28
g11
sg21
V1
sg22
Vr
sg15
F0.76370000839233398
sg23
g27
sg19
g20
sg14
I1
sg29
g30
sa(dp487
g28
g11
sg21
V1
sg22
Vr
sg15
F3.6222460269927979
sg23
g27
sg19
g20
sg14
I0
sg29
g30
sa(dp488
g28
g11
sg21
V1
sg22
Vr
sg15
F0.96425485610961914
sg23
g27
sg19
g20
sg14
I1
sg29
g30
sa(dp489
g28
g11
sg21
V1
sg22
Vr
sg15
F2.5661671161651611
sg23
g27
sg19
g20
sg14
I0
sg29
g30
sa(dp490
g28
g11
sg21
V1
sg22
Vr
sg15
F2.7173829078674316
sg23
g27
sg19
g20
sg14
I1
sg29
g30
sa(dp491
g28
g11
sg21
V1
sg22
Vr
sg15
F2.816978931427002
sg23
g27
sg19
g20
sg14
I1
sg29
g30
sa(dp492
g28
g11
sg21
V1
sg22
Vr
sg15
F0.81991887092590332
sg23
g27
sg19
g20
sg14
I1
sg29
g30
sa(dp493
g28
g11
sg21
V1
sg22
Vr
sg15
F0.84837198257446289
sg23
g27
sg19
g20
sg14
I1
sg29
g30
sa(dp494
g28
g11
sg21
V1
sg22
Vr
sg15
F2.9519047737121582
sg23
g27
sg19
g20
sg14
I1
sg29
g30
sa(dp495
g28
g11
sg21
V1
sg22
Vr
sg15
F1.1148340702056885
sg23
g27
sg19
g20
sg14
I1
sg29
g30
sa(dp496
g28
g11
sg21
V1
sg22
Vr
sg15
F2.3452980518341064
sg23
g27
sg19
g20
sg14
I1
sg29
g30
sa(dp497
g28
g11
sg21
V1
sg22
Vr
sg15
F3.1405689716339111
sg23
g27
sg19
g20
sg14
I0
sg29
g30
sa(dp498
g28
g11
sg21
V1
sg22
Vr
sg15
F3.1867170333862305
sg23
g27
sg19
g20
sg14
I1
sg29
g30
sa(dp499
g28
g11
sg21
V1
sg22
Vr
sg15
F2.115649938583374
sg23
g27
sg19
g20
sg14
I1
sg29
g30
sa(dp500
g28
g11
sg21
V1
sg22
Vr
sg15
F1.783001184463501
sg23
g27
sg19
g20
sg14
I1
sg29
g30
sa(dp501
g28
g11
sg21
V1
sg22
Vr
sg15
F3.3042821884155273
sg23
g27
sg19
g20
sg14
I1
sg29
g30
sa(dp502
g28
g11
sg21
V1
sg22
Vr
sg15
F0.9987339973449707
sg23
g27
sg19
g20
sg14
I1
sg29
g30
sa(dp503
g28
g11
sg21
V1
sg22
Vr
sg15
F2.8884649276733398
sg23
g27
sg19
g20
sg14
I0
sg29
g30
sa(dp504
g28
g11
sg21
V1
sg22
Vr
sg15
F2.7517240047454834
sg23
g27
sg19
g20
sg14
I1
sg29
g30
sa(dp505
g28
g11
sg21
V1
sg22
Vr
sg15
F2.5843880176544189
sg23
g27
sg19
g20
sg14
I0
sg29
g30
sa(dp506
g28
g11
sg21
V1
sg22
Vr
sg15
F0.96483778953552246
sg23
g27
sg19
g20
sg14
I1
sg29
g30
sa(dp507
g28
g11
sg21
V1
sg22
Vr
sg15
F0.80301189422607422
sg23
g27
sg19
g20
sg14
I1
sg29
g30
sa(dp508
g28
g11
sg21
V1
sg22
Vr
sg15
F2.0166330337524414
sg23
g27
sg19
g20
sg14
I1
sg29
g30
sa(dp509
g28
g11
sg21
V1
sg22
Vr
sg15
F2.0818848609924316
sg23
g27
sg19
g20
sg14
I1
sg29
g30
sa(dp510
g28
g11
sg21
V1
sg22
Vr
sg15
F3.3525340557098389
sg23
g27
sg19
g20
sg14
I0
sg29
g30
sa(dp511
g28
g11
sg21
V1
sg22
Vr
sg15
F0.88105106353759766
sg23
g27
sg19
g20
sg14
I1
sg29
g30
sa(dp512
g28
g11
sg21
V1
sg22
Vr
sg15
F2.8501899242401123
sg23
g27
sg19
g20
sg14
I0
sg29
g30
sa(dp513
g28
g11
sg21
V1
sg22
Vr
sg15
F0.95569801330566406
sg23
g27
sg19
g20
sg14
I1
sg29
g30
sa(dp514
g28
g11
sg21
V1
sg22
Vr
sg15
F0.94458794593811035
sg23
g27
sg19
g20
sg14
I1
sg29
g30
sa(dp515
g28
g11
sg21
V1
sg22
Vr
sg15
F3.2357029914855957
sg23
g27
sg19
g20
sg14
I1
sg29
g30
sa(dp516
g28
g11
sg21
V1
sg22
Vr
sg15
F2.9524679183959961
sg23
g27
sg19
g20
sg14
I0
sg29
g30
sa(dp517
g28
g11
sg21
V1
sg22
Vr
sg15
F0.99759101867675781
sg23
g27
sg19
g20
sg14
I1
sg29
g30
sa(dp518
g28
g11
sg21
V1
sg22
Vr
sg15
F2.7415440082550049
sg23
g27
sg19
g20
sg14
I0
sg29
g30
sa(dp519
g28
g11
sg21
V1
sg22
Vr
sg15
F2.8065950870513916
sg23
g27
sg19
g20
sg14
I1
sg29
g30
sa(dp520
g28
g11
sg21
V1
sg22
Vr
sg15
F0.9648749828338623
sg23
g27
sg19
g20
sg14
I1
sg29
g30
sa(dp521
g28
g11
sg21
V1
sg22
Vr
sg15
F0.8456730842590332
sg23
g27
sg19
g20
sg14
I1
sg29
g30
sa(dp522
g28
g11
sg21
V1
sg22
Vr
sg15
F3.1014101505279541
sg23
g27
sg19
g20
sg14
I0
sg29
g30
sa(dp523
g28
g11
sg21
V1
sg22
Vr
sg15
F2.5179610252380371
sg23
g27
sg19
g20
sg14
I1
sg29
g30
sa(dp524
g28
g11
sg21
V1
sg22
Vr
sg15
F0.94964599609375
sg23
g27
sg19
g20
sg14
I1
sg29
g30
sa(dp525
g28
g11
sg21
V1
sg22
Vr
sg15
F2.7540650367736816
sg23
g27
sg19
g20
sg14
I0
sg29
g30
sa(dp526
g28
g11
sg21
V1
sg22
Vr
sg15
F1.0313441753387451
sg23
g27
sg19
g20
sg14
I1
sg29
g30
sa(dp527
g28
g11
sg21
V1
sg22
Vr
sg15
F0.99938297271728516
sg23
g27
sg19
g20
sg14
I1
sg29
g30
sa(dp528
g28
g11
sg21
V1
sg22
Vr
sg15
F3.5896990299224854
sg23
g27
sg19
g20
sg14
I1
sg29
g30
sa(dp529
g28
g11
sg21
V1
sg22
Vr
sg15
F2.8188421726226807
sg23
g27
sg19
g20
sg14
I0
sg29
g30
sa(dp530
g28
g11
sg21
V1
sg22
Vr
sg15
F3.3681399822235107
sg23
g27
sg19
g20
sg14
I0
sg29
g30
sa(dp531
g28
g11
sg21
V1
sg22
Vr
sg15
F2.3818440437316895
sg23
g27
sg19
g20
sg14
I0
sg29
g30
sa(dp532
g28
g11
sg21
V1
sg22
Vr
sg15
F0.81305718421936035
sg23
g27
sg19
g20
sg14
I1
sg29
g30
sa(dp533
g28
g11
sg21
V1
sg22
Vr
sg15
F2.0486311912536621
sg23
g27
sg19
g20
sg14
I1
sg29
g30
sa(dp534
g28
g11
sg21
V1
sg22
Vr
sg15
F3.3601372241973877
sg23
g27
sg19
g20
sg14
I0
sg29
g30
sa(dp535
g28
g11
sg21
V1
sg22
Vr
sg15
F2.238070011138916
sg23
g27
sg19
g20
sg14
I1
sg29
g30
sa(dp536
g28
g11
sg21
V1
sg22
Vr
sg15
F1.8684370517730713
sg23
g27
sg19
g20
sg14
I1
sg29
g30
sa(dp537
g28
g11
sg21
V1
sg22
Vr
sg15
F4.8217079639434814
sg23
g27
sg19
g20
sg14
I0
sg29
g30
sa(dp538
g28
g11
sg21
V1
sg22
Vr
sg15
F2.5829689502716064
sg23
g27
sg19
g20
sg14
I0
sg29
g30
sa(dp539
g28
g11
sg21
V1
sg22
Vr
sg15
F2.6385409832000732
sg23
g27
sg19
g20
sg14
I0
sg29
g30
sa(dp540
g28
g11
sg21
V1
sg22
Vr
sg15
F1.1486749649047852
sg23
g27
sg19
g20
sg14
I1
sg29
g30
sa(dp541
g28
g11
sg21
V1
sg22
Vr
sg15
F1.9341361522674561
sg23
g27
sg19
g20
sg14
I1
sg29
g30
sa(dp542
g28
g11
sg21
V1
sg22
Vr
sg15
F0.86421298980712891
sg23
g27
sg19
g20
sg14
I1
sg29
g30
sa(dp543
g28
g11
sg21
V1
sg22
Vr
sg15
F6.6579737663269043
sg23
g27
sg19
g20
sg14
I1
sg29
g30
sa(dp544
g28
g11
sg21
V1
sg22
Vr
sg15
F2.5835309028625488
sg23
g27
sg19
g20
sg14
I0
sg29
g30
sa(dp545
g28
g11
sg21
V1
sg22
Vr
sg15
F2.7518219947814941
sg23
g27
sg19
g20
sg14
I0
sg29
g30
sa(dp546
g28
g11
sg21
V1
sg22
Vr
sg15
F0.9326019287109375
sg23
g27
sg19
g20
sg14
I1
sg29
g30
sa(dp547
g28
g11
sg21
V1
sg22
Vr
sg15
F1.1156680583953857
sg23
g27
sg19
g20
sg14
I1
sg29
g30
sa(dp548
g28
g11
sg21
V1
sg22
Vr
sg15
F0.86356210708618164
sg23
g27
sg19
g20
sg14
I1
sg29
g30
sa(dp549
g28
g11
sg21
V1
sg22
Vr
sg15
F0.84925484657287598
sg23
g27
sg19
g20
sg14
I1
sg29
g30
sa(dp550
g28
g11
sg21
V1
sg22
Vr
sg15
F0.98090195655822754
sg23
g27
sg19
g20
sg14
I1
sg29
g30
sa(dp551
g28
g11
sg21
V1
sg22
Vr
sg15
F3.4695169925689697
sg23
g27
sg19
g20
sg14
I1
sg29
g30
sa(dp552
g28
g11
sg21
V1
sg22
Vr
sg15
F3.1353409290313721
sg23
g27
sg19
g20
sg14
I1
sg29
g30
sa(dp553
g28
g11
sg21
V1
sg22
Vr
sg15
F2.5178217887878418
sg23
g27
sg19
g20
sg14
I1
sg29
g30
sa(dp554
g28
g11
sg21
V1
sg22
Vr
sg15
F3.0858430862426758
sg23
g27
sg19
g20
sg14
I0
sg29
g30
sa(dp555
g28
g11
sg21
V1
sg22
Vr
sg15
F1.1158111095428467
sg23
g27
sg19
g20
sg14
I1
sg29
g30
sa(dp556
g28
g11
sg21
V1
sg22
Vr
sg15
F1.8000888824462891
sg23
g27
sg19
g20
sg14
I1
sg29
g30
sa(dp557
g28
g11
sg21
V1
sg22
Vr
sg15
F3.9190151691436768
sg23
g27
sg19
g20
sg14
I1
sg29
g30
sa(dp558
g28
g11
sg21
V1
sg22
Vr
sg15
F3.3194210529327393
sg23
g27
sg19
g20
sg14
I1
sg29
g30
sa(dp559
g28
g11
sg21
V1
sg22
Vr
sg15
F2.2159838676452637
sg23
g27
sg19
g20
sg14
I1
sg29
g30
sa(dp560
g28
g11
sg21
V1
sg22
Vr
sg15
F0.99779820442199707
sg23
g27
sg19
g20
sg14
I1
sg29
g30
sa(dp561
g28
g11
sg21
V1
sg22
Vr
sg15
F0.88562989234924316
sg23
g27
sg19
g20
sg14
I1
sg29
g30
sa(dp562
g28
g11
sg21
V1
sg22
Vr
sg15
F0.71447300910949707
sg23
g27
sg19
g20
sg14
I1
sg29
g30
sa(dp563
g28
g11
sg21
V1
sg22
Vr
sg15
F0.83187985420227051
sg23
g27
sg19
g20
sg14
I1
sg29
g30
sa(dp564
g28
g11
sg21
V1
sg22
Vr
sg15
F3.0180208683013916
sg23
g27
sg19
g20
sg14
I1
sg29
g30
sa(dp565
g28
g11
sg21
V1
sg22
Vr
sg15
F2.5673038959503174
sg23
g27
sg19
g20
sg14
I0
sg29
g30
sa(dp566
g28
g11
sg21
V1
sg22
Vr
sg15
F0.9319920539855957
sg23
g27
sg19
g20
sg14
I1
sg29
g30
sa(dp567
g28
g11
sg21
V1
sg22
Vr
sg15
F2.6499209403991699
sg23
g27
sg19
g20
sg14
I1
sg29
g30
sa(dp568
g28
g11
sg21
V1
sg22
Vr
sg15
F1.0805039405822754
sg23
g27
sg19
g20
sg14
I1
sg29
g30
sa(dp569
g28
g11
sg21
V1
sg22
Vr
sg15
F1.0482299327850342
sg23
g27
sg19
g20
sg14
I1
sg29
g30
sa(dp570
g28
g11
sg21
V1
sg22
Vr
sg15
F2.7009100914001465
sg23
g27
sg19
g20
sg14
I0
sg29
g30
sa(dp571
g28
g11
sg21
V1
sg22
Vr
sg15
F2.4839839935302734
sg23
g27
sg19
g20
sg14
I1
sg29
g30
sa(dp572
g28
g11
sg21
V1
sg22
Vr
sg15
F1.2324738502502441
sg23
g27
sg19
g20
sg14
I1
sg29
g30
sa(dp573
g28
g11
sg21
V1
sg22
Vr
sg15
F1.7024128437042236
sg23
g27
sg19
g20
sg14
I1
sg29
g30
sa(dp574
g28
g11
sg21
V1
sg22
Vr
sg15
F2.7848718166351318
sg23
g27
sg19
g20
sg14
I1
sg29
g30
sa(dp575
g28
g11
sg21
V1
sg22
Vr
sg15
F1.1152651309967041
sg23
g27
sg19
g20
sg14
I1
sg29
g30
sa(dp576
g28
g11
sg21
V1
sg22
Vr
sg15
F2.717864990234375
sg23
g27
sg19
g20
sg14
I0
sg29
g30
sa(dp577
g28
g11
sg21
V1
sg22
Vr
sg15
F1.4824380874633789
sg23
g27
sg19
g20
sg14
I1
sg29
g30
sa(dp578
g28
g11
sg21
V1
sg22
Vr
sg15
F2.9062798023223877
sg23
g27
sg19
g20
sg14
I1
sg29
g30
sa(dp579
g28
g11
sg21
V1
sg22
Vr
sg15
F1.7158439159393311
sg23
g27
sg19
g20
sg14
I1
sg29
g30
sa(dp580
g28
g11
sg21
V1
sg22
Vr
sg15
F3.8699538707733154
sg23
g27
sg19
g20
sg14
I0
sg29
g30
sa(dp581
g28
g11
sg21
V1
sg22
Vr
sg15
F0.96718096733093262
sg23
g27
sg19
g20
sg14
I1
sg29
g30
sa(dp582
g28
g11
sg21
V1
sg22
Vr
sg15
F0.98277091979980469
sg23
g27
sg19
g20
sg14
I1
sg29
g30
sa(dp583
g28
g11
sg21
V1
sg22
Vr
sg15
F2.5685310363769531
sg23
g27
sg19
g20
sg14
I0
sg29
g30
sa(dp584
g28
g11
sg21
V1
sg22
Vr
sg15
F2.5842142105102539
sg23
g27
sg19
g20
sg14
I0
sg29
g30
sa(dp585
g28
g11
sg21
V1
sg22
Vr
sg15
F2.5896999835968018
sg23
g27
sg19
g20
sg14
I1
sg29
g30
sa(dp586
g28
g11
sg21
V1
sg22
Vr
sg15
F3.029242992401123
sg23
g27
sg19
g20
sg14
I0
sg29
g30
sa(dp587
g28
g11
sg21
V1
sg22
Vr
sg15
F2.7646059989929199
sg23
g27
sg19
g20
sg14
I0
sg29
g30
sa(dp588
g28
g11
sg21
V1
sg22
Vr
sg15
F1.3645279407501221
sg23
g27
sg19
g20
sg14
I1
sg29
g30
sa(dp589
g28
g11
sg21
V1
sg22
Vr
sg15
F0.89674210548400879
sg23
g27
sg19
g20
sg14
I1
sg29
g30
sa(dp590
g28
g11
sg21
V1
sg22
Vr
sg15
F0.75226092338562012
sg23
g27
sg19
g20
sg14
I1
sg29
g30
sa(dp591
g28
g11
sg21
V1
sg22
Vr
sg15
F2.6192507743835449
sg23
g27
sg19
g20
sg14
I0
sg29
g30
sa(dp592
g28
g11
sg21
V1
sg22
Vr
sg15
F0.89859604835510254
sg23
g27
sg19
g20
sg14
I1
sg29
g30
sa(dp593
g28
g11
sg21
V1
sg22
Vr
sg15
F1.684826135635376
sg23
g27
sg19
g20
sg14
I1
sg29
g30
sa(dp594
g28
g11
sg21
V1
sg22
Vr
sg15
F1.2472970485687256
sg23
g27
sg19
g20
sg14
I1
sg29
g30
sa(dp595
g28
g11
sg21
V1
sg22
Vr
sg15
F2.7166070938110352
sg23
g27
sg19
g20
sg14
I1
sg29
g30
sa(dp596
g28
g11
sg21
V1
sg22
Vr
sg15
F2.5499401092529297
sg23
g27
sg19
g20
sg14
I1
sg29
g30
sa(dp597
g28
g11
sg21
V1
sg22
Vr
sg15
F0.82851004600524902
sg23
g27
sg19
g20
sg14
I1
sg29
g30
sa(dp598
g28
g11
sg21
V1
sg22
Vr
sg15
F2.537755012512207
sg23
g27
sg19
g20
sg14
I1
sg29
g30
sa(dp599
g28
g11
sg21
V1
sg22
Vr
sg15
F2.7827019691467285
sg23
g27
sg19
g20
sg14
I0
sg29
g30
sa(dp600
g28
g11
sg21
V1
sg22
Vr
sg15
F2.8846461772918701
sg23
g27
sg19
g20
sg14
I1
sg29
g30
sa(dp601
g28
g11
sg21
V1
sg22
Vr
sg15
F2.3330950736999512
sg23
g27
sg19
g20
sg14
I1
sg29
g30
sa(dp602
g28
g11
sg21
V1
sg22
Vr
sg15
F1.6967239379882812
sg23
g27
sg19
g20
sg14
I1
sg29
g30
sa(dp603
g28
g11
sg21
V1
sg22
Vr
sg15
F3.4243700504302979
sg23
g27
sg19
g20
sg14
I1
sg29
g30
sa(dp604
g28
g11
sg21
V1
sg22
Vr
sg15
F2.6171820163726807
sg23
g27
sg19
g20
sg14
I0
sg29
g30
sa(dp605
g28
g11
sg21
V1
sg22
Vr
sg15
F1.0649130344390869
sg23
g27
sg19
g20
sg14
I1
sg29
g30
sa(dp606
g28
g11
sg21
V1
sg22
Vr
sg15
F1.9009158611297607
sg23
g27
sg19
g20
sg14
I1
sg29
g30
sa(dp607
g28
g11
sg21
V1
sg22
Vr
sg15
F2.5674309730529785
sg23
g27
sg19
g20
sg14
I0
sg29
g30
sa(dp608
g28
g11
sg21
V1
sg22
Vr
sg15
F2.8359758853912354
sg23
g27
sg19
g20
sg14
I1
sg29
g30
sa(dp609
g28
g11
sg21
V1
sg22
Vr
sg15
F0.91438794136047363
sg23
g27
sg19
g20
sg14
I1
sg29
g30
sa(dp610
g28
g11
sg21
V1
sg22
Vr
sg15
F1.667471170425415
sg23
g27
sg19
g20
sg14
I1
sg29
g30
sa(dp611
g28
g11
sg21
V1
sg22
Vr
sg15
F0.8477940559387207
sg23
g27
sg19
g20
sg14
I1
sg29
g30
sa(dp612
g28
g11
sg21
V1
sg22
Vr
sg15
F1.7667992115020752
sg23
g27
sg19
g20
sg14
I1
sg29
g30
sa(dp613
g28
g11
sg21
V1
sg22
Vr
sg15
F3.1185770034790039
sg23
g27
sg19
g20
sg14
I1
sg29
g30
sa(dp614
g28
g11
sg21
V1
sg22
Vr
sg15
F2.6176278591156006
sg23
g27
sg19
g20
sg14
I1
sg29
g30
sa(dp615
g28
g11
sg21
V1
sg22
Vr
sg15
F0.93666696548461914
sg23
g27
sg19
g20
sg14
I1
sg29
g30
sa(dp616
g28
g11
sg21
V1
sg22
Vr
sg15
F1.8169841766357422
sg23
g27
sg19
g20
sg14
I1
sg29
g30
sa(dp617
g28
g11
sg21
V1
sg22
Vr
sg15
F1.1990690231323242
sg23
g27
sg19
g20
sg14
I1
sg29
g30
sa(dp618
g28
g11
sg21
V1
sg22
Vr
sg15
F3.6526119709014893
sg23
g27
sg19
g20
sg14
I1
sg29
g30
sa(dp619
g28
g11
sg21
V1
sg22
Vr
sg15
F2.9425711631774902
sg23
g27
sg19
g20
sg14
I0
sg29
g30
sa(dp620
g28
g11
sg21
V1
sg22
Vr
sg15
F1.2158389091491699
sg23
g27
sg19
g20
sg14
I1
sg29
g30
sa(dp621
g28
g11
sg21
V1
sg22
Vr
sg15
F0.9169619083404541
sg23
g27
sg19
g20
sg14
I1
sg29
g30
sa(dp622
g28
g11
sg21
V1
sg22
Vr
sg15
F3.3525729179382324
sg23
g27
sg19
g20
sg14
I0
sg29
g30
sa(dp623
g28
g11
sg21
V1
sg22
Vr
sg15
F2.9671280384063721
sg23
g27
sg19
g20
sg14
I0
sg29
g30
sa(dp624
g28
g11
sg21
V1
sg22
Vr
sg15
F2.6019279956817627
sg23
g27
sg19
g20
sg14
I1
sg29
g30
sa(dp625
g28
g11
sg21
V1
sg22
Vr
sg15
F2.3178260326385498
sg23
g27
sg19
g20
sg14
I1
sg29
g30
sa(dp626
g28
g11
sg21
V1
sg22
Vr
sg15
F3.621628999710083
sg23
g27
sg19
g20
sg14
I1
sg29
g30
sa(dp627
g28
g11
sg21
V1
sg22
Vr
sg15
F2.5332169532775879
sg23
g27
sg19
g20
sg14
I0
sg29
g30
sa(dp628
g28
g11
sg21
V1
sg22
Vr
sg15
F2.5674080848693848
sg23
g27
sg19
g20
sg14
I1
sg29
g30
sa(dp629
g28
g11
sg21
V1
sg22
Vr
sg15
F2.7330408096313477
sg23
g27
sg19
g20
sg14
I1
sg29
g30
sa(dp630
g28
g11
sg21
V1
sg22
Vr
sg15
F2.5394530296325684
sg23
g27
sg19
g20
sg14
I1
sg29
g30
sa(dp631
g28
g11
sg21
V1
sg22
Vr
sg15
F2.1709399223327637
sg23
g27
sg19
g20
sg14
I1
sg29
g30
sa(dp632
g28
g11
sg21
V1
sg22
Vr
sg15
F3.7195708751678467
sg23
g27
sg19
g20
sg14
I0
sg29
g30
sa(dp633
g28
g11
sg21
V1
sg22
Vr
sg15
F2.0599288940429688
sg23
g27
sg19
g20
sg14
I1
sg29
g30
sa(dp634
g28
g11
sg21
V1
sg22
Vr
sg15
F3.1183798313140869
sg23
g27
sg19
g20
sg14
I0
sg29
g30
sa(dp635
g28
g11
sg21
V1
sg22
Vr
sg15
F2.1508059501647949
sg23
g27
sg19
g20
sg14
I1
sg29
g30
sa(dp636
g28
g11
sg21
V1
sg22
Vr
sg15
F1.746675968170166
sg23
g27
sg19
g20
sg14
I1
sg29
g30
sa(dp637
g28
g11
sg21
V1
sg22
Vr
sg15
F0.98180007934570312
sg23
g27
sg19
g20
sg14
I1
sg29
g30
sa(dp638
g28
g11
sg21
V1
sg22
Vr
sg15
F3.0839910507202148
sg23
g27
sg19
g20
sg14
I1
sg29
g30
sa(dp639
g28
g11
sg21
V1
sg22
Vr
sg15
F2.080657958984375
sg23
g27
sg19
g20
sg14
I1
sg29
g30
sa(dp640
g28
g11
sg21
V1
sg22
Vr
sg15
F1.1064419746398926
sg23
g27
sg19
g20
sg14
I1
sg29
g30
sa(dp641
g28
g11
sg21
V1
sg22
Vr
sg15
F2.1213521957397461
sg23
g27
sg19
g20
sg14
I1
sg29
g30
sa(dp642
g28
g11
sg21
V1
sg22
Vr
sg15
F3.6222159862518311
sg23
g27
sg19
g20
sg14
I1
sg29
g30
sa(dp643
g28
g11
sg21
V1
sg22
Vr
sg15
F2.8177590370178223
sg23
g27
sg19
g20
sg14
I0
sg29
g30
sa(dp644
g28
g11
sg21
V1
sg22
Vr
sg15
F1.2009398937225342
sg23
g27
sg19
g20
sg14
I1
sg29
g30
sa(dp645
g28
g11
sg21
V1
sg22
Vr
sg15
F2.8508598804473877
sg23
g27
sg19
g20
sg14
I1
sg29
g30
sa(dp646
g28
g11
sg21
V1
sg22
Vr
sg15
F2.6593611240386963
sg23
g27
sg19
g20
sg14
I1
sg29
g30
sa(dp647
g28
g11
sg21
V1
sg22
Vr
sg15
F2.3694050312042236
sg23
g27
sg19
g20
sg14
I1
sg29
g30
sa(dp648
g28
g11
sg21
V1
sg22
Vr
sg15
F1.2489030361175537
sg23
g27
sg19
g20
sg14
I1
sg29
g30
sa(dp649
g28
g11
sg21
V1
sg22
Vr
sg15
F1.0836279392242432
sg23
g27
sg19
g20
sg14
I1
sg29
g30
sa(dp650
g28
g11
sg21
V1
sg22
Vr
sg15
F2.9126949310302734
sg23
g27
sg19
g20
sg14
I1
sg29
g30
sa(dp651
g28
g11
sg21
V1
sg22
Vr
sg15
F1.1207518577575684
sg23
g27
sg19
g20
sg14
I1
sg29
g30
sa(dp652
g28
g11
sg21
V1
sg22
Vr
sg15
F2.2221620082855225
sg23
g27
sg19
g20
sg14
I1
sg29
g30
sa(dp653
g28
g11
sg21
V1
sg22
Vr
sg15
F2.3681609630584717
sg23
g27
sg19
g20
sg14
I0
sg29
g30
sa(dp654
g28
g11
sg21
V1
sg22
Vr
sg15
F2.8516299724578857
sg23
g27
sg19
g20
sg14
I1
sg29
g30
sa(dp655
g28
g11
sg21
V1
sg22
Vr
sg15
F3.1189320087432861
sg23
g27
sg19
g20
sg14
I1
sg29
g30
sa(dp656
g28
g11
sg21
V1
sg22
Vr
sg15
F2.5775411128997803
sg23
g27
sg19
g20
sg14
I0
sg29
g30
sa(dp657
g28
g11
sg21
V1
sg22
Vr
sg15
F1.8541390895843506
sg23
g27
sg19
g20
sg14
I1
sg29
g30
sa(dp658
g28
g11
sg21
V1
sg22
Vr
sg15
F1.0015380382537842
sg23
g27
sg19
g20
sg14
I1
sg29
g30
sa(dp659
g28
g11
sg21
V1
sg22
Vr
sg15
F2.7175021171569824
sg23
g27
sg19
g20
sg14
I0
sg29
g30
sa(dp660
g28
g11
sg21
V1
sg22
Vr
sg15
F2.4150569438934326
sg23
g27
sg19
g20
sg14
I1
sg29
g30
sa(dp661
g28
g11
sg21
V1
sg22
Vr
sg15
F2.7023990154266357
sg23
g27
sg19
g20
sg14
I1
sg29
g30
sa(dp662
g28
g11
sg21
V1
sg22
Vr
sg15
F2.5507619380950928
sg23
g27
sg19
g20
sg14
I0
sg29
g30
sa(dp663
g28
g11
sg21
V1
sg22
Vr
sg15
F1.0644040107727051
sg23
g27
sg19
g20
sg14
I1
sg29
g30
sa(dp664
g28
g11
sg21
V1
sg22
Vr
sg15
F1.9183878898620605
sg23
g27
sg19
g20
sg14
I1
sg29
g30
sa(dp665
g28
g11
sg21
V1
sg22
Vr
sg15
F2.9671289920806885
sg23
g27
sg19
g20
sg14
I1
sg29
g30
sa(dp666
g28
g11
sg21
V1
sg22
Vr
sg15
F0.96543598175048828
sg23
g27
sg19
g20
sg14
I1
sg29
g30
sa(dp667
g28
g11
sg21
V1
sg22
Vr
sg15
F2.5955550670623779
sg23
g27
sg19
g20
sg14
I1
sg29
g30
sa(dp668
g28
g11
sg21
V1
sg22
Vr
sg15
F0.88078403472900391
sg23
g27
sg19
g20
sg14
I1
sg29
g30
sa(dp669
g28
g11
sg21
V1
sg22
Vr
sg15
F2.2836627960205078
sg23
g27
sg19
g20
sg14
I1
sg29
g30
sa(dp670
g28
g11
sg21
V1
sg22
Vr
sg15
F2.6524398326873779
sg23
g27
sg19
g20
sg14
I0
sg29
g30
sa(dp671
g28
g11
sg21
V1
sg22
Vr
sg15
F2.6348109245300293
sg23
g27
sg19
g20
sg14
I0
sg29
g30
sa(dp672
g28
g11
sg21
V1
sg22
Vr
sg15
F2.6165449619293213
sg23
g27
sg19
g20
sg14
I1
sg29
g30
sa(dp673
g28
g11
sg21
V1
sg22
Vr
sg15
F2.7345550060272217
sg23
g27
sg19
g20
sg14
I1
sg29
g30
sa(dp674
g28
g11
sg21
V1
sg22
Vr
sg15
F2.4539167881011963
sg23
g27
sg19
g20
sg14
I0
sg29
g30
sa(dp675
g28
g11
sg21
V1
sg22
Vr
sg15
F1.1009988784790039
sg23
g27
sg19
g20
sg14
I1
sg29
g30
sa(dp676
g28
g11
sg21
V1
sg22
Vr
sg15
F2.6172811985015869
sg23
g27
sg19
g20
sg14
I1
sg29
g30
sa(dp677
g28
g11
sg21
V1
sg22
Vr
sg15
F2.0669589042663574
sg23
g27
sg19
g20
sg14
I1
sg29
g30
sa(dp678
g28
g11
sg21
V1
sg22
Vr
sg15
F2.7693841457366943
sg23
g27
sg19
g20
sg14
I1
sg29
g30
sa(dp679
g28
g11
sg21
V1
sg22
Vr
sg15
F2.000201940536499
sg23
g27
sg19
g20
sg14
I1
sg29
g30
sa(dp680
g28
g11
sg21
V1
sg22
Vr
sg15
F2.2023279666900635
sg23
g27
sg19
g20
sg14
I1
sg29
g30
sa(dp681
g28
g11
sg21
V1
sg22
Vr
sg15
F1.8826367855072021
sg23
g27
sg19
g20
sg14
I1
sg29
g30
sa(dp682
g28
g11
sg21
V1
sg22
Vr
sg15
F2.9984691143035889
sg23
g27
sg19
g20
sg14
I0
sg29
g30
sa(dp683
g28
g11
sg21
V1
sg22
Vr
sg15
F2.6858909130096436
sg23
g27
sg19
g20
sg14
I1
sg29
g30
sa(dp684
g28
g11
sg21
V1
sg22
Vr
sg15
F1.1865830421447754
sg23
g27
sg19
g20
sg14
I1
sg29
g30
sa(dp685
g28
g11
sg21
V1
sg22
Vr
sg15
F2.6721289157867432
sg23
g27
sg19
g20
sg14
I1
sg29
g30
sa(dp686
g28
g11
sg21
V1
sg22
Vr
sg15
F2.5174360275268555
sg23
g27
sg19
g20
sg14
I1
sg29
g30
sa(dp687
g28
g11
sg21
V1
sg22
Vr
sg15
F1.9507009983062744
sg23
g27
sg19
g20
sg14
I1
sg29
g30
sa(dp688
g28
g11
sg21
V1
sg22
Vr
sg15
F2.7012450695037842
sg23
g27
sg19
g20
sg14
I1
sg29
g30
sa(dp689
g28
g11
sg21
V1
sg22
Vr
sg15
F1.934906005859375
sg23
g27
sg19
g20
sg14
I1
sg29
g30
sa(dp690
g28
g11
sg21
V1
sg22
Vr
sg15
F2.1212568283081055
sg23
g27
sg19
g20
sg14
I0
sg29
g30
sa(dp691
g28
g11
sg21
V1
sg22
Vr
sg15
F3.0722169876098633
sg23
g27
sg19
g20
sg14
I0
sg29
g30
sa(dp692
g28
g11
sg21
V1
sg22
Vr
sg15
F1.7665200233459473
sg23
g27
sg19
g20
sg14
I1
sg29
g30
sa(dp693
g28
g11
sg21
V1
sg22
Vr
sg15
F3.3192758560180664
sg23
g27
sg19
g20
sg14
I1
sg29
g30
sa(dp694
g28
g11
sg21
V1
sg22
Vr
sg15
F3.2226269245147705
sg23
g27
sg19
g20
sg14
I1
sg29
g30
sa(dp695
g28
g11
sg21
V1
sg22
Vr
sg15
F3.0005049705505371
sg23
g27
sg19
g20
sg14
I1
sg29
g30
sa(dp696
g28
g11
sg21
V1
sg22
Vr
sg15
F1.9524550437927246
sg23
g27
sg19
g20
sg14
I0
sg29
g30
sa(dp697
g28
g11
sg21
V1
sg22
Vr
sg15
F2.9020318984985352
sg23
g27
sg19
g20
sg14
I1
sg29
g30
sa(dp698
g28
g11
sg21
V1
sg22
Vr
sg15
F2.584442138671875
sg23
g27
sg19
g20
sg14
I1
sg29
g30
sa(dp699
g28
g11
sg21
V1
sg22
Vr
sg15
F2.8552761077880859
sg23
g27
sg19
g20
sg14
I0
sg29
g30
sa(dp700
g28
g11
sg21
V1
sg22
Vr
sg15
F2.7026269435882568
sg23
g27
sg19
g20
sg14
I0
sg29
g30
sa(dp701
g28
g11
sg21
V1
sg22
Vr
sg15
F2.0363090038299561
sg23
g27
sg19
g20
sg14
I1
sg29
g30
sa(dp702
g28
g11
sg21
V1
sg22
Vr
sg15
F2.7850301265716553
sg23
g27
sg19
g20
sg14
I0
sg29
g30
sa(dp703
g28
g11
sg21
V1
sg22
Vr
sg15
F2.8354270458221436
sg23
g27
sg19
g20
sg14
I1
sg29
g30
sa(dp704
g28
g11
sg21
V1
sg22
Vr
sg15
F2.8614749908447266
sg23
g27
sg19
g20
sg14
I0
sg29
g30
sa(dp705
g28
g11
sg21
V1
sg22
Vr
sg15
F0.91355085372924805
sg23
g27
sg19
g20
sg14
I1
sg29
g30
sa(dp706
g28
g11
sg21
V1
sg22
Vr
sg15
F1.0155019760131836
sg23
g27
sg19
g20
sg14
I1
sg29
g30
sa(dp707
g28
g11
sg21
V1
sg22
Vr
sg15
F0.81378293037414551
sg23
g27
sg19
g20
sg14
I1
sg29
g30
sa(dp708
g28
g11
sg21
V1
sg22
Vr
sg15
F2.1310811042785645
sg23
g27
sg19
g20
sg14
I1
sg29
g30
sa(dp709
g28
g11
sg21
V1
sg22
Vr
sg15
F2.6854641437530518
sg23
g27
sg19
g20
sg14
I1
sg29
g30
sa(dp710
g28
g11
sg21
V1
sg22
Vr
sg15
F2.6839499473571777
sg23
g27
sg19
g20
sg14
I0
sg29
g30
sa(dp711
g28
g11
sg21
V1
sg22
Vr
sg15
F2.6151139736175537
sg23
g27
sg19
g20
sg14
I0
sg29
g30
sa(dp712
g28
g11
sg21
V1
sg22
Vr
sg15
F2.2534339427947998
sg23
g27
sg19
g20
sg14
I1
sg29
g30
sa(dp713
g28
g11
sg21
V1
sg22
Vr
sg15
F1.0474710464477539
sg23
g27
sg19
g20
sg14
I1
sg29
g30
sa(dp714
g28
g11
sg21
V1
sg22
Vr
sg15
F2.5335819721221924
sg23
g27
sg19
g20
sg14
I1
sg29
g30
sa(dp715
g28
g11
sg21
V1
sg22
Vr
sg15
F2.6721060276031494
sg23
g27
sg19
g20
sg14
I1
sg29
g30
sa(dp716
g28
g11
sg21
V1
sg22
Vr
sg15
F2.6565399169921875
sg23
g27
sg19
g20
sg14
I0
sg29
g30
sa(dp717
g28
g11
sg21
V1
sg22
Vr
sg15
F2.6373639106750488
sg23
g27
sg19
g20
sg14
I0
sg29
g30
sa(dp718
g28
g11
sg21
V1
sg22
Vr
sg15
F2.7691597938537598
sg23
g27
sg19
g20
sg14
I1
sg29
g30
sa(dp719
g28
g11
sg21
V1
sg22
Vr
sg15
F2.5529100894927979
sg23
g27
sg19
g20
sg14
I1
sg29
g30
sa(dp720
g28
g11
sg21
V1
sg22
Vr
sg15
F3.0340330600738525
sg23
g27
sg19
g20
sg14
I1
sg29
g30
sa(dp721
g28
g11
sg21
V1
sg22
Vr
sg15
F2.7079741954803467
sg23
g27
sg19
g20
sg14
I0
sg29
g30
sa(dp722
g28
g11
sg21
V1
sg22
Vr
sg15
F2.4546239376068115
sg23
g27
sg19
g20
sg14
I0
sg29
g30
sa(dp723
g28
g11
sg21
V1
sg22
Vr
sg15
F2.6703450679779053
sg23
g27
sg19
g20
sg14
I1
sg29
g30
sa(dp724
g28
g11
sg21
V1
sg22
Vr
sg15
F2.4844300746917725
sg23
g27
sg19
g20
sg14
I0
sg29
g30
sa(dp725
g28
g11
sg21
V1
sg22
Vr
sg15
F0.94702696800231934
sg23
g27
sg19
g20
sg14
I1
sg29
g30
sa(dp726
g28
g11
sg21
V1
sg22
Vr
sg15
F2.9512019157409668
sg23
g27
sg19
g20
sg14
I0
sg29
g30
sa(dp727
g28
g11
sg21
V1
sg22
Vr
sg15
F2.9057860374450684
sg23
g27
sg19
g20
sg14
I0
sg29
g30
sa(dp728
g28
g11
sg21
V1
sg22
Vr
sg15
F0.86563587188720703
sg23
g27
sg19
g20
sg14
I1
sg29
g30
sa(dp729
g28
g11
sg21
V1
sg22
Vr
sg15
F2.6177279949188232
sg23
g27
sg19
g20
sg14
I0
sg29
g30
sa(dp730
g28
g11
sg21
V1
sg22
Vr
sg15
F0.96545815467834473
sg23
g27
sg19
g20
sg14
I1
sg29
g30
sa(dp731
g28
g11
sg21
V1
sg22
Vr
sg15
F2.7482979297637939
sg23
g27
sg19
g20
sg14
I1
sg29
g30
sa(dp732
g28
g11
sg21
V1
sg22
Vr
sg15
F2.5408120155334473
sg23
g27
sg19
g20
sg14
I1
sg29
g30
sa(dp733
g28
g11
sg21
V1
sg22
Vr
sg15
F1.6149489879608154
sg23
g27
sg19
g20
sg14
I1
sg29
g30
sa(dp734
g28
g11
sg21
V1
sg22
Vr
sg15
F2.0346188545227051
sg23
g27
sg19
g20
sg14
I1
sg29
g30
sa(dp735
g28
g11
sg21
V1
sg22
Vr
sg15
F3.1365530490875244
sg23
g27
sg19
g20
sg14
I1
sg29
g30
sa(dp736
g28
g11
sg21
V1
sg22
Vr
sg15
F3.050278902053833
sg23
g27
sg19
g20
sg14
I1
sg29
g30
sa(dp737
g28
g11
sg21
V1
sg22
Vr
sg15
F2.6911699771881104
sg23
g27
sg19
g20
sg14
I1
sg29
g30
sa(dp738
g28
g11
sg21
V1
sg22
Vr
sg15
F2.7739408016204834
sg23
g27
sg19
g20
sg14
I1
sg29
g30
sa(dp739
g28
g11
sg21
V1
sg22
Vr
sg15
F2.4690217971801758
sg23
g27
sg19
g20
sg14
I1
sg29
g30
sa(dp740
g28
g11
sg21
V1
sg22
Vr
sg15
F2.9177000522613525
sg23
g27
sg19
g20
sg14
I0
sg29
g30
sa(dp741
g28
g11
sg21
V1
sg22
Vr
sg15
F2.7863121032714844
sg23
g27
sg19
g20
sg14
I1
sg29
g30
sa(dp742
g28
g11
sg21
V1
sg22
Vr
sg15
F1.2152290344238281
sg23
g27
sg19
g20
sg14
I1
sg29
g30
sa(dp743
g28
g11
sg21
V1
sg22
Vr
sg15
F3.0555799007415771
sg23
g27
sg19
g20
sg14
I0
sg29
g30
sa(dp744
g28
g11
sg21
V1
sg22
Vr
sg15
F2.5693697929382324
sg23
g27
sg19
g20
sg14
I1
sg29
g30
sa(dp745
g28
g11
sg21
V1
sg22
Vr
sg15
F1.0961041450500488
sg23
g27
sg19
g20
sg14
I1
sg29
g30
sa(dp746
g28
g11
sg21
V1
sg22
Vr
sg15
F2.9854681491851807
sg23
g27
sg19
g20
sg14
I0
sg29
g30
sa(dp747
g28
g11
sg21
V1
sg22
Vr
sg15
F2.5345590114593506
sg23
g27
sg19
g20
sg14
I0
sg29
g30
sa(dp748
g28
g11
sg21
V1
sg22
Vr
sg15
F1.0061039924621582
sg23
g27
sg19
g20
sg14
I1
sg29
g30
sa(dp749
g28
g11
sg21
V1
sg22
Vr
sg15
F2.0196709632873535
sg23
g27
sg19
g20
sg14
I1
sg29
g30
sa(dp750
g28
g11
sg21
V1
sg22
Vr
sg15
F1.0001850128173828
sg23
g27
sg19
g20
sg14
I1
sg29
g30
sa(dp751
g28
g11
sg21
V1
sg22
Vr
sg15
F0.89836406707763672
sg23
g27
sg19
g20
sg14
I1
sg29
g30
sa(dp752
g28
g11
sg21
V1
sg22
Vr
sg15
F3.0855638980865479
sg23
g27
sg19
g20
sg14
I0
sg29
g30
sa(dp753
g28
g11
sg21
V1
sg22
Vr
sg15
F3.3768699169158936
sg23
g27
sg19
g20
sg14
I0
sg29
g30
sa(dp754
g28
g11
sg21
V1
sg22
Vr
sg15
F2.5221240520477295
sg23
g27
sg19
g20
sg14
I1
sg29
g30
sa(dp755
g28
g11
sg21
V1
sg22
Vr
sg15
F2.4861390590667725
sg23
g27
sg19
g20
sg14
I0
sg29
g30
sa(dp756
g28
g11
sg21
V1
sg22
Vr
sg15
F1.6501278877258301
sg23
g27
sg19
g20
sg14
I1
sg29
g30
sa(dp757
g28
g11
sg21
V1
sg22
Vr
sg15
F2.817147970199585
sg23
g27
sg19
g20
sg14
I0
sg29
g30
sa(dp758
g28
g11
sg21
V1
sg22
Vr
sg15
F1.3500261306762695
sg23
g27
sg19
g20
sg14
I1
sg29
g30
sa(dp759
g28
g11
sg21
V1
sg22
Vr
sg15
F2.7517039775848389
sg23
g27
sg19
g20
sg14
I1
sg29
g30
sa(dp760
g28
g11
sg21
V1
sg22
Vr
sg15
F3.2062919139862061
sg23
g27
sg19
g20
sg14
I0
sg29
g30
sasS'loops'
p761
(lp762
sS'savePickle'
p763
I00
sb.